(lp0
I19421
aI15364
aI6809
aI4362
aI5478
aI13159
aI12641
aI9700
aI12824
aI1624
aI10672
aI13992
aI6481
aI16249
aI9661
aI9171
aI4890
aI9705
aI11657
aI751
aI13430
aI15510
aI7959
aI11306
aI5818
aI12100
aI11130
aI7796
aI7576
aI17090
aI3572
aI5817
aI3797
aI14459
aI15667
aI19068
aI17519
aI14484
aI16129
aI808
aI6187
aI7645
aI580
aI13931
aI12117
aI7604
aI3180
aI17087
aI308
aI17857
aI15905
aI9178
aI4353
aI12046
aI17764
aI9621
aI2582
aI12708
aI10015
aI123
aI12639
aI3326
aI16294
aI19422
aI6612
aI2268
aI11729
aI19588
aI11034
aI12310
aI17351
aI743
aI8821
aI15612
aI17883
aI871
aI13236
aI17534
aI16930
aI1825
aI12480
aI7541
aI6610
aI12881
aI17535
aI18307
aI6305
aI8671
aI11084
aI9652
aI3887
aI11467
aI16538
aI13928
aI9780
aI15866
aI5762
aI3362
aI3569
aI14772
aI16397
aI4921
aI16311
aI7925
aI8984
aI4494
aI9953
aI11350
aI15780
aI1394
aI2342
aI12505
aI4369
aI223
aI6418
aI1980
aI11165
aI8971
aI8848
aI3314
aI17718
aI15481
aI17422
aI13701
aI18625
aI7593
aI6669
aI6481
aI12825
aI19795
aI12072
aI2776
aI3631
aI5174
aI9218
aI7143
aI11070
aI12116
aI2694
aI6860
aI2443
aI16667
aI8276
aI6319
aI2404
aI6850
aI16625
aI8219
aI12002
aI4176
aI525
aI10487
aI11182
aI703
aI13154
aI13033
aI17107
aI8678
aI10280
aI8426
aI15591
aI7059
aI2451
aI13762
aI6096
aI12948
aI11964
aI15996
aI2573
aI14871
aI14170
aI8426
aI19153
aI17746
aI12366
aI14321
aI12086
aI2944
aI17645
aI1374
aI5504
aI5615
aI5746
aI15999
aI7725
aI3070
aI17076
aI4299
aI18591
aI12624
aI3274
aI1273
aI11597
aI15332
aI16760
aI8533
aI16647
aI17531
aI6575
aI4294
aI17352
aI3575
aI14134
aI1674
aI1420
aI3905
aI9793
aI2390
aI758
aI1859
aI7749
aI11537
aI1540
aI6733
aI1521
aI1402
aI6698
aI1800
aI11233
aI16152
aI604
aI17319
aI13440
aI8567
aI16561
aI6706
aI19602
aI2407
aI975
aI15746
aI7182
aI10615
aI1137
aI11875
aI17089
aI619
aI417
aI9229
aI3105
aI8022
aI10264
aI5871
aI17312
aI6215
aI13063
aI12070
aI8392
aI5847
aI18899
aI14079
aI2730
aI4035
aI19858
aI13079
aI14818
aI3450
aI12817
aI6772
aI18508
aI8237
aI8777
aI17100
aI3254
aI14066
aI14448
aI9005
aI17069
aI9471
aI12952
aI16959
aI16254
aI16613
aI15586
aI5515
aI9499
aI676
aI19348
aI15579
aI17722
aI6066
aI18949
aI7152
aI7550
aI6312
aI1578
aI17860
aI17951
aI16827
aI9343
aI13514
aI7118
aI14756
aI13555
aI1343
aI11016
aI1415
aI18609
aI13691
aI5609
aI331
aI16559
aI3743
aI11865
aI11993
aI8401
aI12762
aI11872
aI11800
aI11604
aI17954
aI8063
aI15926
aI12359
aI12859
aI15461
aI7962
aI16214
aI15838
aI15391
aI10276
aI12524
aI5074
aI15593
aI1649
aI1399
aI7175
aI328
aI10529
aI17041
aI16474
aI4997
aI10478
aI6043
aI5505
aI8016
aI829
aI15399
aI19610
aI19920
aI9712
aI12116
aI19656
aI8398
aI11922
aI11509
aI18156
aI14881
aI13288
aI9331
aI1338
aI3827
aI16240
aI13528
aI18091
aI15658
aI1837
aI3492
aI10324
aI6590
aI478
aI8223
aI6066
aI19166
aI7394
aI1049
aI12601
aI13379
aI16769
aI15789
aI2636
aI3386
aI19358
aI11283
aI10343
aI6139
aI12758
aI9560
aI15100
aI17399
aI1677
aI7163
aI12905
aI1030
aI11455
aI19075
aI3937
aI1728
aI7596
aI8581
aI6794
aI11902
aI173
aI5899
aI17933
aI3692
aI18290
aI389
aI16029
aI10928
aI3781
aI5952
aI4551
aI16912
aI14442
aI1654
aI1638
aI1673
aI5478
aI19850
aI9707
aI14916
aI15932
aI17578
aI5247
aI4476
aI4776
aI7780
aI9424
aI17254
aI13796
aI13571
aI1259
aI2751
aI11569
aI1178
aI4649
aI12998
aI7359
aI8733
aI1025
aI11273
aI1486
aI17340
aI9810
aI18936
aI6832
aI13152
aI4466
aI3064
aI1593
aI18354
aI15934
aI8321
aI9129
aI14175
aI3727
aI13587
aI10675
aI11759
aI11874
aI9188
aI2131
aI10412
aI7921
aI7755
aI1851
aI14235
aI11565
aI12728
aI117
aI11037
aI3689
aI5334
aI3379
aI19590
aI15737
aI5348
aI14191
aI11822
aI4286
aI983
aI4840
aI7308
aI14026
aI11975
aI12519
aI2758
aI15855
aI6518
aI783
aI3116
aI11967
aI320
aI18264
aI1980
aI14604
aI242
aI3030
aI1528
aI14679
aI16804
aI4480
aI16989
aI11347
aI12357
aI3329
aI15575
aI6103
aI1103
aI5372
aI2253
aI5914
aI15425
aI7816
aI7408
aI14886
aI17274
aI5779
aI16243
aI4930
aI6008
aI7972
aI16737
aI18638
aI11370
aI5391
aI9656
aI746
aI10762
aI15407
aI2423
aI3080
aI17598
aI7073
aI18065
aI2224
aI8250
aI11093
aI19120
aI2602
aI19476
aI12002
aI3746
aI15977
aI3572
aI11001
aI14865
aI19047
aI19603
aI13911
aI7319
aI7348
aI18441
aI2276
aI5790
aI6306
aI5869
aI6001
aI620
aI5803
aI168
aI9798
aI4086
aI1128
aI4975
aI152
aI15431
aI7699
aI8715
aI15174
aI8880
aI5612
aI9023
aI4711
aI8338
aI9591
aI18662
aI12867
aI9349
aI8384
aI10748
aI7849
aI14317
aI4377
aI12989
aI8992
aI271
aI8952
aI9575
aI3461
aI3217
aI16732
aI11183
aI10462
aI2392
aI14543
aI17154
aI9350
aI11446
aI3661
aI17271
aI8138
aI6652
aI14626
aI3246
aI1310
aI14784
aI16345
aI6026
aI12020
aI8704
aI15777
aI8091
aI16392
aI14108
aI4357
aI3280
aI12314
aI2993
aI1240
aI3138
aI9997
aI485
aI11780
aI6467
aI14112
aI17359
aI4956
aI18089
aI1571
aI9535
aI18117
aI7367
aI5461
aI13282
aI17536
aI2664
aI16163
aI11296
aI10106
aI15114
aI15427
aI5369
aI1219
aI8659
aI19871
aI11663
aI6496
aI17913
aI4200
aI10377
aI13138
aI10431
aI19773
aI9762
aI3156
aI1670
aI9302
aI13384
aI16620
aI1655
aI11748
aI13685
aI12504
aI17590
aI16711
aI15844
aI13049
aI3932
aI14011
aI18192
aI617
aI13216
aI18486
aI6391
aI9101
aI8549
aI1889
aI6480
aI15462
aI7966
aI2422
aI19332
aI7387
aI6740
aI1618
aI12662
aI1111
aI3909
aI18657
aI17809
aI5206
aI5682
aI18032
aI3538
aI9627
aI1920
aI10622
aI4736
aI149
aI4159
aI17008
aI15553
aI12250
aI4340
aI13388
aI18342
aI9187
aI8541
aI19318
aI10309
aI7219
aI7076
aI16851
aI18802
aI16400
aI13660
aI91
aI10620
aI3487
aI7381
aI1352
aI2697
aI11114
aI18802
aI187
aI1247
aI11711
aI1475
aI13051
aI220
aI14298
aI10991
aI4837
aI5497
aI5778
aI15919
aI11968
aI3045
aI2704
aI6072
aI10452
aI9363
aI5158
aI14062
aI5010
aI16080
aI3913
aI2628
aI3991
aI15850
aI10036
aI4928
aI4632
aI12290
aI13851
aI11082
aI7118
aI9808
aI3381
aI3568
aI19339
aI10368
aI12234
aI1803
aI16800
aI14404
aI2825
aI10702
aI12207
aI1451
aI4386
aI3814
aI16677
aI14666
aI18192
aI3414
aI10845
aI7754
aI2249
aI12448
aI5188
aI14087
aI14913
aI8166
aI5610
aI5279
aI6176
aI7708
aI9902
aI17017
aI11845
aI15044
aI10501
aI19412
aI12936
aI15257
aI16666
aI15306
aI13263
aI19503
aI19354
aI6043
aI14372
aI11446
aI2433
aI14073
aI8504
aI18475
aI6203
aI14443
aI11062
aI18696
aI2937
aI13254
aI6415
aI3644
aI9394
aI14372
aI6232
aI427
aI2732
aI10179
aI3576
aI7051
aI16566
aI15924
aI8468
aI2621
aI10082
aI14640
aI5447
aI12548
aI9998
aI7205
aI1642
aI2854
aI8657
aI868
aI16030
aI14912
aI7598
aI12505
aI12357
aI16868
aI10790
aI12321
aI4670
aI2077
aI17740
aI5621
aI8691
aI17022
aI13849
aI7464
aI13037
aI10759
aI19819
aI7541
aI6496
aI12659
aI10243
aI93
aI5733
aI6442
aI6854
aI16793
aI13548
aI8185
aI4740
aI19245
aI8115
aI5299
aI10170
aI1770
aI9261
aI3888
aI5811
aI18734
aI16146
aI2451
aI12851
aI4548
aI12118
aI18313
aI16819
aI10719
aI15058
aI14938
aI4947
aI7422
aI17124
aI11461
aI18445
aI5226
aI15385
aI13192
aI12095
aI3848
aI13381
aI4108
aI3083
aI3471
aI13282
aI19867
aI6796
aI1761
aI875
aI1211
aI7687
aI15437
aI11608
aI792
aI11228
aI13038
aI9692
aI12100
aI417
aI16947
aI3962
aI7500
aI19538
aI10636
aI17312
aI4685
aI8159
aI11236
aI16046
aI13784
aI1743
aI16133
aI4036
aI12620
aI14640
aI17468
aI8872
aI471
aI14958
aI4909
aI6315
aI8087
aI879
aI16984
aI10804
aI19161
aI3232
aI3268
aI8998
aI9099
aI15632
aI8822
aI18290
aI17059
aI4515
aI14586
aI3289
aI3101
aI19143
aI4618
aI10999
aI16706
aI369
aI3260
aI14269
aI10901
aI17594
aI9633
aI2645
aI9532
aI4379
aI3065
aI1489
aI7005
aI13552
aI9617
aI11356
aI87
aI8435
aI8543
aI2568
aI731
aI5542
aI9959
aI15514
aI10198
aI10198
aI1063
aI9170
aI18029
aI18493
aI899
aI6735
aI17236
aI3254
aI7009
aI12036
aI13229
aI19112
aI5011
aI532
aI11736
aI16370
aI7762
aI7750
aI11409
aI2569
aI16136
aI11460
aI97
aI12692
aI18541
aI6435
aI8812
aI6966
aI9037
aI18152
aI13022
aI18044
aI7525
aI6005
aI11007
aI5821
aI1855
aI12554
aI19910
aI704
aI12497
aI14830
aI8454
aI10836
aI5380
aI16951
aI2128
aI12097
aI11776
aI12749
aI10404
aI5927
aI918
aI13380
aI14099
aI9200
aI15964
aI18290
aI7589
aI17262
aI10338
aI7294
aI7041
aI13443
aI17440
aI3327
aI9237
aI3760
aI13086
aI2179
aI14124
aI9602
aI14971
aI6791
aI12962
aI9944
aI11240
aI16341
aI14458
aI14529
aI16525
aI10891
aI4097
aI615
aI15073
aI13931
aI18164
aI14864
aI14278
aI17103
aI17362
aI19692
aI18916
aI9225
aI7352
aI7643
aI15900
aI1442
aI8695
aI4628
aI10299
aI18863
aI3733
aI13482
aI2063
aI1390
aI17406
aI9545
aI4687
aI19759
aI15463
aI5936
aI12446
aI19092
aI18521
aI18680
aI12681
aI8630
aI12492
aI1559
aI2990
aI17334
aI15587
aI16245
aI7002
aI3313
aI18003
aI182
aI9447
aI9910
aI3588
aI1388
aI18891
aI793
aI1929
aI1411
aI13478
aI13562
aI17027
aI11958
aI10747
aI18826
aI17728
aI11256
aI11462
aI4021
aI13732
aI3355
aI4422
aI17458
aI3745
aI968
aI547
aI19543
aI2245
aI18659
aI19271
aI12162
aI19142
aI19130
aI10062
aI7523
aI5673
aI19240
aI16391
aI3367
aI14768
aI12630
aI11368
aI18244
aI9929
aI6542
aI15542
aI7508
aI3342
aI2180
aI6993
aI12927
aI8289
aI7536
aI3877
aI7900
aI8840
aI16960
aI8144
aI13044
aI4760
aI2312
aI12255
aI9644
aI14766
aI9114
aI16112
aI8366
aI8147
aI5225
aI1080
aI13709
aI11108
aI2403
aI15794
aI7322
aI27
aI18473
aI16738
aI2677
aI1539
aI1238
aI11049
aI17811
aI15660
aI13
aI7189
aI16110
aI1599
aI12506
aI16090
aI7701
aI339
aI17615
aI7893
aI9467
aI19497
aI7885
aI19452
aI2909
aI12616
aI3518
aI11442
aI8311
aI4115
aI19055
aI12755
aI17009
aI16743
aI609
aI18349
aI14210
aI10438
aI12383
aI3361
aI14084
aI226
aI6310
aI18325
aI12301
aI2110
aI4453
aI14281
aI1053
aI18149
aI17842
aI2262
aI5824
aI4799
aI3186
aI17351
aI556
aI2543
aI4655
aI4451
aI455
aI3020
aI9478
aI8481
aI7257
aI18347
aI6027
aI9562
aI14498
aI15171
aI13379
aI2996
aI18439
aI6831
aI10115
aI8727
aI4901
aI1962
aI5788
aI3887
aI6420
aI19258
aI2155
aI10451
aI7192
aI11185
aI4170
aI5736
aI18221
aI14055
aI18983
aI18027
aI5380
aI3079
aI13948
aI12957
aI15865
aI11148
aI535
aI17926
aI1329
aI13696
aI18660
aI8788
aI8288
aI15646
aI8863
aI3205
aI5662
aI12149
aI17412
aI6884
aI14478
aI8951
aI6637
aI18469
aI19342
aI8516
aI2136
aI8549
aI9930
aI13867
aI906
aI5107
aI17070
aI15397
aI8281
aI9069
aI10537
aI3788
aI336
aI12413
aI19138
aI14913
aI18267
aI1737
aI14237
aI13356
aI11285
aI2715
aI3252
aI12714
aI18493
aI5556
aI5807
aI2037
aI131
aI4801
aI3908
aI16376
aI13492
aI7928
aI18246
aI8712
aI1880
aI17064
aI16048
aI8110
aI1967
aI1559
aI601
aI10820
aI8076
aI7325
aI5089
aI19034
aI11588
aI14183
aI9999
aI6246
aI12928
aI19246
aI811
aI5160
aI18954
aI17159
aI16806
aI10803
aI14468
aI17132
aI13806
aI15469
aI975
aI4212
aI6138
aI13389
aI9348
aI14784
aI11726
aI7791
aI11742
aI6579
aI16279
aI12960
aI18316
aI6544
aI8006
aI13300
aI19859
aI1148
aI13351
aI4572
aI16421
aI9269
aI17950
aI1825
aI16040
aI7630
aI7663
aI7461
aI9001
aI15588
aI6217
aI5694
aI12287
aI9066
aI6856
aI1248
aI4554
aI16316
aI8525
aI15520
aI8841
aI787
aI1371
aI4018
aI16305
aI1622
aI35
aI15829
aI13050
aI406
aI7518
aI9635
aI18713
aI6695
aI18796
aI13449
aI390
aI5911
aI14375
aI9170
aI15086
aI15022
aI11159
aI11475
aI14564
aI10340
aI663
aI19738
aI166
aI7494
aI12204
aI9695
aI7601
aI1723
aI17543
aI18743
aI2167
aI7868
aI13365
aI19250
aI9893
aI6568
aI13629
aI16439
aI19281
aI7252
aI18105
aI2063
aI4583
aI4491
aI7303
aI6357
aI2805
aI12827
aI12490
aI17649
aI17061
aI3520
aI6629
aI18421
aI14086
aI19369
aI11584
aI8373
aI5631
aI4034
aI9321
aI5761
aI5449
aI15847
aI15976
aI1400
aI17128
aI17340
aI5478
aI2825
aI8267
aI14583
aI7950
aI18547
aI12056
aI9975
aI1018
aI13766
aI1378
aI14846
aI12546
aI12272
aI13614
aI18542
aI4842
aI14493
aI2048
aI1998
aI11280
aI10632
aI7514
aI17916
aI6637
aI13880
aI7287
aI3346
aI2096
aI9824
aI9937
aI12121
aI16010
aI3034
aI12436
aI5376
aI17301
aI4650
aI797
aI4051
aI17327
aI6153
aI3836
aI11615
aI18417
aI12222
aI10469
aI12792
aI8817
aI1157
aI1802
aI12050
aI5554
aI13426
aI5509
aI13481
aI12598
aI9300
aI747
aI10308
aI16117
aI7733
aI1926
aI823
aI10529
aI18038
aI16126
aI14907
aI6900
aI14342
aI11929
aI536
aI12324
aI11898
aI11257
aI10254
aI8669
aI13393
aI4808
aI18173
aI4978
aI16767
aI6173
aI747
aI15464
aI3091
aI13397
aI5050
aI11534
aI6124
aI3079
aI3243
aI1188
aI4174
aI14651
aI11021
aI5425
aI11092
aI16059
aI7953
aI13337
aI14316
aI6389
aI6437
aI19302
aI7108
aI3250
aI11837
aI4667
aI19548
aI16734
aI8806
aI16653
aI938
aI1888
aI14159
aI12186
aI9013
aI11385
aI8041
aI18076
aI10170
aI8879
aI13244
aI12649
aI7484
aI17993
aI1731
aI14108
aI12684
aI19374
aI15211
aI16560
aI13430
aI81
aI15692
aI3356
aI10742
aI2785
aI9571
aI15502
aI10763
aI6127
aI3695
aI13870
aI11881
aI570
aI3201
aI13389
aI9470
aI237
aI3739
aI988
aI18252
aI13587
aI2258
aI979
aI6102
aI19305
aI3257
aI8202
aI13700
aI1984
aI4479
aI5106
aI6306
aI5411
aI17844
aI4626
aI19170
aI12221
aI16996
aI14325
aI2860
aI5031
aI2053
aI1804
aI18506
aI9187
aI9467
aI2952
aI19812
aI14100
aI2908
aI6938
aI15110
aI14009
aI7486
aI11897
aI12171
aI12172
aI1502
aI8780
aI4219
aI7332
aI15847
aI11215
aI15656
aI4507
aI622
aI12080
aI16063
aI17717
aI9481
aI8192
aI17271
aI3533
aI11596
aI389
aI3274
aI12062
aI15384
aI3891
aI18844
aI14613
aI14330
aI2123
aI9265
aI19364
aI6225
aI11084
aI4901
aI4361
aI8021
aI19885
aI4798
aI12157
aI6558
aI17887
aI91
aI9916
aI19695
aI6214
aI8934
aI7687
aI8262
aI10437
aI6264
aI5726
aI13144
aI309
aI6600
aI11376
aI4825
aI1375
aI1850
aI9120
aI12854
aI8937
aI16740
aI13658
aI600
aI15389
aI15688
aI6834
aI11948
aI677
aI16706
aI11527
aI9447
aI18577
aI4975
aI6462
aI4719
aI11096
aI7146
aI12721
aI14772
aI19883
aI8204
aI1759
aI1976
aI9369
aI10723
aI463
aI1523
aI8135
aI10475
aI13456
aI14483
aI11466
aI16175
aI2321
aI14293
aI15088
aI5179
aI11399
aI6187
aI16773
aI8780
aI1056
aI11648
aI5960
aI17964
aI16562
aI19675
aI800
aI3176
aI19495
aI15332
aI1911
aI7212
aI12025
aI488
aI16840
aI7078
aI10842
aI11365
aI2827
aI14515
aI8416
aI15397
aI13018
aI2040
aI1372
aI13051
aI17979
aI5667
aI12408
aI15923
aI14168
aI18129
aI6286
aI2875
aI2134
aI14672
aI4713
aI10889
aI6503
aI18845
aI3582
aI17453
aI7264
aI15011
aI2590
aI9316
aI12154
aI19713
aI18595
aI12088
aI17006
aI9380
aI19592
aI7588
aI9372
aI5759
aI11106
aI8379
aI17576
aI12200
aI14637
aI14101
aI15034
aI16436
aI207
aI6973
aI16250
aI4356
aI12768
aI11009
aI8194
aI8531
aI9527
aI11549
aI8969
aI10569
aI12057
aI14858
aI19972
aI19258
aI1635
aI1418
aI6002
aI18024
aI16835
aI9596
aI4267
aI12492
aI6343
aI1491
aI10821
aI345
aI10378
aI2664
aI3114
aI10994
aI13219
aI5855
aI11426
aI7185
aI13472
aI6256
aI17031
aI3088
aI18433
aI16774
aI14092
aI19793
aI4922
aI10265
aI18549
aI13552
aI8882
aI16409
aI11638
aI14604
aI8690
aI12748
aI9438
aI9722
aI5754
aI7297
aI5807
aI6455
aI12167
aI5295
aI8593
aI14193
aI17640
aI10863
aI19331
aI10675
aI1491
aI97
aI13489
aI2634
aI13525
aI10151
aI2131
aI8827
aI16465
aI17260
aI7425
aI910
aI1335
aI11126
aI15221
aI13766
aI6692
aI9022
aI13533
aI18138
aI9875
aI6440
aI12940
aI13345
aI4126
aI12984
aI11377
aI6941
aI16291
aI13264
aI3168
aI3933
aI9864
aI12966
aI14031
aI12229
aI14348
aI17322
aI9007
aI7681
aI671
aI9472
aI17810
aI13902
aI15842
aI42
aI13525
aI13418
aI11966
aI668
aI18623
aI648
aI6195
aI5526
aI11440
aI13792
aI14702
aI19142
aI17244
aI15369
aI10040
aI17472
aI2461
aI246
aI14117
aI8809
aI2926
aI12501
aI7507
aI8295
aI7850
aI3963
aI10546
aI19642
aI2247
aI13440
aI926
aI12265
aI2451
aI14062
aI11756
aI17543
aI15302
aI6490
aI4431
aI18983
aI3341
aI16516
aI19988
aI19897
aI10144
aI13273
aI7160
aI14159
aI8647
aI5143
aI8402
aI5418
aI19739
aI1883
aI18387
aI5096
aI4753
aI13119
aI14593
aI6876
aI18145
aI27
aI14035
aI1098
aI12476
aI9786
aI6021
aI2995
aI438
aI15627
aI232
aI3836
aI2651
aI2197
aI13105
aI13212
aI11089
aI14151
aI13769
aI2487
aI18478
aI9587
aI5965
aI1382
aI7031
aI2068
aI9241
aI1413
aI496
aI12131
aI11163
aI10832
aI9673
aI1358
aI339
aI506
aI13335
aI5553
aI9959
aI19126
aI15949
aI14555
aI2329
aI7152
aI7667
aI3250
aI1980
aI195
aI6349
aI14834
aI14235
aI5914
aI15598
aI14049
aI13800
aI11318
aI16806
aI888
aI16961
aI644
aI9933
aI7311
aI9456
aI13695
aI6903
aI11768
aI852
aI12971
aI16059
aI12374
aI5626
aI2146
aI13335
aI5760
aI8345
aI9148
aI73
aI8940
aI3632
aI9962
aI15144
aI848
aI8047
aI5487
aI4466
aI19144
aI6097
aI10413
aI8379
aI7228
aI669
aI16448
aI8880
aI2163
aI4515
aI19354
aI12849
aI18066
aI7877
aI13355
aI5883
aI12311
aI164
aI14633
aI2235
aI9222
aI17568
aI13211
aI17384
aI12814
aI3740
aI8112
aI7354
aI3859
aI15032
aI7696
aI11310
aI12465
aI11252
aI2612
aI3784
aI11906
aI12037
aI17202
aI18727
aI3045
aI18631
aI13488
aI6751
aI19373
aI14380
aI17061
aI15847
aI2377
aI3238
aI9003
aI537
aI8896
aI2740
aI6804
aI458
aI1994
aI18352
aI8113
aI10544
aI12836
aI15088
aI1086
aI4389
aI10644
aI9976
aI4383
aI18248
aI16877
aI17475
aI7966
aI11032
aI8690
aI5412
aI7531
aI9077
aI5987
aI10399
aI1987
aI8040
aI13735
aI2580
aI11311
aI18812
aI6812
aI8015
aI4435
aI1417
aI7439
aI2100
aI5572
aI15093
aI4150
aI9705
aI9605
aI19990
aI1762
aI8616
aI131
aI2856
aI2469
aI18940
aI806
aI10736
aI3582
aI9356
aI9397
aI17004
aI3595
aI18976
aI13466
aI11792
aI18327
aI8078
aI2036
aI9236
aI10236
aI7915
aI12923
aI3071
aI1798
aI16791
aI2624
aI14716
aI5712
aI12020
aI12527
aI10450
aI18128
aI8917
aI6703
aI16115
aI16555
aI8908
aI18948
aI13454
aI17604
aI14051
aI13438
aI12721
aI13711
aI4610
aI10197
aI10304
aI18611
aI11503
aI15821
aI10446
aI10593
aI10422
aI13460
aI2750
aI13826
aI2274
aI6648
aI1924
aI3596
aI12171
aI6545
aI2123
aI2760
aI3195
aI8439
aI14446
aI10409
aI6466
aI5645
aI18658
aI12887
aI7126
aI2876
aI11201
aI16783
aI2652
aI14778
aI2015
aI4332
aI2697
aI3829
aI9202
aI2186
aI12450
aI17264
aI12119
aI17396
aI7635
aI14222
aI1393
aI8115
aI10829
aI9466
aI10475
aI2125
aI4671
aI7129
aI17094
aI4389
aI1864
aI8825
aI18493
aI16015
aI1663
aI16952
aI1617
aI18037
aI2406
aI11160
aI16890
aI16199
aI9480
aI15098
aI6153
aI9903
aI1461
aI11779
aI16662
aI16901
aI16599
aI12487
aI8884
aI17641
aI18044
aI1534
aI8168
aI16974
aI7727
aI12075
aI2395
aI19481
aI8473
aI9735
aI18486
aI8223
aI2637
aI13778
aI14911
aI2949
aI4542
aI15742
aI10332
aI18535
aI14060
aI14050
aI10211
aI3642
aI10317
aI5347
aI5519
aI4749
aI11106
aI6845
aI11850
aI15703
aI4686
aI9910
aI7551
aI9373
aI19161
aI8146
aI4034
aI900
aI8081
aI15308
aI18902
aI12402
aI6983
aI6671
aI17192
aI17148
aI12128
aI12930
aI18477
aI17299
aI3589
aI7116
aI6396
aI17878
aI9688
aI7156
aI11593
aI12955
aI16880
aI16429
aI9390
aI18614
aI281
aI6799
aI4212
aI1457
aI11251
aI18226
aI15414
aI7818
aI6804
aI596
aI12508
aI8517
aI1739
aI7531
aI8864
aI6846
aI18833
aI4752
aI2169
aI8064
aI19629
aI5531
aI7129
aI11658
aI15994
aI17351
aI15698
aI6965
aI4031
aI17428
aI4694
aI11840
aI10518
aI3344
aI580
aI12839
aI18976
aI18549
aI1252
aI14767
aI16127
aI18596
aI3534
aI19658
aI19751
aI12619
aI2867
aI11812
aI2090
aI14944
aI13728
aI17666
aI18482
aI1890
aI9640
aI2770
aI8925
aI1473
aI1585
aI18646
aI7645
aI10200
aI11047
aI7634
aI15494
aI13794
aI8952
aI18206
aI1536
aI19405
aI9254
aI18404
aI3315
aI7379
aI13348
aI18364
aI10280
aI14281
aI9710
aI9324
aI16874
aI776
aI11175
aI7845
aI19444
aI11327
aI12898
aI8829
aI1560
aI4918
aI17286
aI5589
aI1563
aI13801
aI6139
aI13067
aI14614
aI2737
aI5304
aI6177
aI13422
aI2758
aI13490
aI1491
aI17396
aI14179
aI14904
aI8727
aI15873
aI17745
aI10134
aI3780
aI16339
aI3600
aI11735
aI505
aI15293
aI18035
aI4617
aI12705
aI16294
aI17211
aI4218
aI15290
aI6004
aI8265
aI13049
aI11682
aI7807
aI1413
aI12402
aI11580
aI17562
aI1379
aI1135
aI19583
aI3453
aI2386
aI11629
aI19284
aI6899
aI4659
aI15084
aI15085
aI17863
aI17450
aI7335
aI6026
aI3721
aI2779
aI7652
aI10427
aI10594
aI14700
aI3824
aI4483
aI4045
aI14459
aI18407
aI3867
aI16759
aI16087
aI16288
aI8460
aI16245
aI11252
aI9588
aI13218
aI5293
aI9821
aI5615
aI890
aI13136
aI13000
aI6217
aI16305
aI8161
aI16404
aI14618
aI14460
aI15515
aI10820
aI16339
aI12661
aI16461
aI4726
aI5094
aI14321
aI19805
aI18648
aI530
aI11795
aI7436
aI17850
aI13247
aI16447
aI5722
aI17338
aI11184
aI3439
aI8837
aI16872
aI2913
aI10145
aI5165
aI10427
aI10024
aI19495
aI12186
aI6677
aI19677
aI12920
aI1323
aI4640
aI259
aI1318
aI16896
aI2166
aI9183
aI14065
aI12886
aI11554
aI6518
aI1906
aI356
aI11667
aI3801
aI8433
aI11648
aI12149
aI12010
aI2974
aI8976
aI13787
aI19813
aI12301
aI14945
aI3606
aI4909
aI958
aI17937
aI17553
aI10074
aI6068
aI8949
aI8199
aI19485
aI14003
aI2522
aI14947
aI16518
aI2891
aI8061
aI11680
aI11551
aI6219
aI4433
aI13720
aI1177
aI6265
aI11722
aI6771
aI18627
aI8892
aI11525
aI7822
aI9099
aI12110
aI11012
aI1468
aI17723
aI16555
aI12971
aI15392
aI16408
aI7292
aI6308
aI12285
aI688
aI16177
aI8681
aI1966
aI1357
aI1561
aI593
aI19808
aI2986
aI11257
aI24
aI9301
aI6737
aI8890
aI12887
aI8734
aI1092
aI2659
aI3295
aI9183
aI14611
aI1570
aI7619
aI3691
aI14618
aI761
aI15855
aI3245
aI9369
aI16818
aI1021
aI1778
aI12739
aI17224
aI8624
aI19644
aI8310
aI12755
aI17257
aI328
aI1981
aI3959
aI16561
aI14104
aI12479
aI718
aI10383
aI15436
aI16590
aI599
aI19829
aI14049
aI16556
aI13209
aI1451
aI14807
aI4579
aI7236
aI15406
aI17749
aI2680
aI10011
aI12447
aI19380
aI7898
aI1057
aI16500
aI4297
aI7492
aI1066
aI9639
aI2671
aI9441
aI117
aI14074
aI10083
aI10836
aI2341
aI206
aI5559
aI17323
aI13083
aI15811
aI17159
aI606
aI18501
aI17622
aI13925
aI18614
aI8384
aI12389
aI15125
aI1007
aI1577
aI8546
aI15560
aI137
aI16831
aI19999
aI5470
aI16313
aI5080
aI1148
aI6598
aI2580
aI1197
aI8111
aI10099
aI18294
aI2388
aI13679
aI13555
aI14978
aI18011
aI14695
aI14482
aI1748
aI7814
aI18845
aI9867
aI5167
aI3412
aI9358
aI11794
aI1639
aI166
aI14918
aI186
aI1333
aI6876
aI3625
aI4889
aI5832
aI311
aI1735
aI5760
aI18291
aI7754
aI17014
aI14303
aI1273
aI11851
aI17005
aI14988
aI8039
aI13886
aI4892
aI11279
aI9428
aI5656
aI12112
aI8299
aI8573
aI12264
aI9461
aI4256
aI3177
aI2405
aI11630
aI6676
aI10823
aI19129
aI17819
aI266
aI10837
aI8107
aI4942
aI4066
aI5094
aI2098
aI13430
aI18209
aI5993
aI16580
aI17966
aI13166
aI4523
aI8396
aI11492
aI17948
aI11194
aI324
aI18070
aI17927
aI10002
aI2260
aI13921
aI7788
aI12079
aI15752
aI14035
aI10168
aI11754
aI15106
aI16957
aI7008
aI720
aI2889
aI16684
aI19965
aI160
aI5754
aI5963
aI10095
aI10890
aI2057
aI14423
aI5489
aI13382
aI7246
aI15035
aI6553
aI6709
aI15964
aI17297
aI10381
aI12890
aI4473
aI12894
aI2537
aI6533
aI16678
aI15408
aI1335
aI13526
aI10094
aI2282
aI10217
aI4017
aI7079
aI9009
aI15496
aI10495
aI4184
aI17884
aI5192
aI9403
aI4011
aI8657
aI19067
aI3859
aI3073
aI16754
aI8130
aI16801
aI19312
aI14042
aI4908
aI15343
aI19853
aI17212
aI6643
aI10728
aI9623
aI6776
aI13662
aI14835
aI4395
aI3752
aI7655
aI5693
aI18665
aI6201
aI3318
aI7683
aI8646
aI16637
aI5450
aI17342
aI16586
aI1752
aI15264
aI14589
aI5063
aI1598
aI13566
aI19281
aI4436
aI8896
aI11260
aI8462
aI7345
aI2436
aI4917
aI4165
aI4703
aI3790
aI1768
aI409
aI15841
aI3274
aI5353
aI3100
aI11941
aI9299
aI2115
aI14625
aI11319
aI14695
aI1227
aI14605
aI14796
aI1735
aI15800
aI3799
aI12100
aI13764
aI1431
aI19164
aI9004
aI10447
aI17323
aI9916
aI14427
aI12541
aI13828
aI8840
aI1886
aI17798
aI3661
aI8077
aI18513
aI19491
aI6884
aI12313
aI10181
aI7428
aI19586
aI19126
aI8346
aI10334
aI5803
aI2170
aI18713
aI8278
aI18103
aI14598
aI6993
aI7357
aI19036
aI2665
aI8966
aI2303
aI8210
aI17526
aI3469
aI18819
aI1328
aI16783
aI5965
aI6821
aI16964
aI6349
aI3748
aI2416
aI2162
aI7864
aI11425
aI9396
aI7080
aI371
aI13841
aI5757
aI1496
aI2487
aI17323
aI9277
aI10501
aI32
aI1855
aI4440
aI18643
aI15144
aI7464
aI9896
aI16910
aI6163
aI17142
aI18865
aI18463
aI7169
aI2830
aI13911
aI2555
aI7070
aI9445
aI17661
aI1132
aI17505
aI7276
aI4224
aI2257
aI1054
aI7898
aI12909
aI4423
aI6926
aI16923
aI4743
aI11862
aI8080
aI385
aI12013
aI49
aI10379
aI995
aI18155
aI7792
aI10655
aI8013
aI19384
aI19807
aI7520
aI4224
aI14374
aI19351
aI6216
aI2750
aI17381
aI14590
aI6829
aI14905
aI11705
aI18413
aI10682
aI16231
aI1433
aI19626
aI10453
aI3866
aI12162
aI14520
aI5824
aI4902
aI464
aI9761
aI11458
aI15614
aI14416
aI9623
aI1095
aI4470
aI3718
aI11948
aI17552
aI3370
aI12826
aI13650
aI15921
aI11050
aI14990
aI11089
aI7600
aI13089
aI6403
aI11112
aI10696
aI4442
aI9073
aI19932
aI643
aI567
aI15889
aI4178
aI905
aI7558
aI9657
aI13237
aI8334
aI13293
aI4428
aI7219
aI10702
aI7570
aI5113
aI16565
aI14172
aI4017
aI19136
aI9210
aI4434
aI2815
aI17971
aI1578
aI11016
aI11950
aI19106
aI9164
aI7326
aI12985
aI5393
aI17110
aI13113
aI13160
aI17437
aI1494
aI8019
aI8483
aI2232
aI5234
aI10367
aI16388
aI3770
aI5612
aI5651
aI10968
aI9973
aI9315
aI2196
aI144
aI10969
aI12474
aI18352
aI11216
aI10466
aI47
aI18129
aI4048
aI11994
aI2707
aI333
aI17348
aI9298
aI18825
aI11063
aI11162
aI2902
aI7513
aI18248
aI5396
aI7613
aI5387
aI12585
aI1897
aI6532
aI1526
aI3114
aI7705
aI4738
aI11712
aI6451
aI19154
aI1610
aI19697
aI9349
aI13834
aI112
aI17406
aI8437
aI8002
aI9531
aI18584
aI4287
aI1339
aI1910
aI2945
aI9187
aI8239
aI12056
aI486
aI11058
aI19863
aI14640
aI15280
aI5050
aI12331
aI11468
aI3478
aI13514
aI2310
aI13047
aI17715
aI19500
aI5891
aI10811
aI9575
aI6553
aI19275
aI18231
aI4000
aI16848
aI18651
aI19500
aI4052
aI15505
aI10128
aI1776
aI6529
aI619
aI3545
aI2568
aI9295
aI142
aI17226
aI13857
aI10325
aI18739
aI4225
aI3118
aI8409
aI8067
aI8794
aI9091
aI19131
aI12306
aI19884
aI3486
aI14106
aI11674
aI15916
aI4251
aI18224
aI7338
aI17945
aI14978
aI2654
aI6910
aI4095
aI6086
aI17921
aI4438
aI18065
aI5924
aI3896
aI1827
aI18875
aI4264
aI9211
aI7825
aI10386
aI11615
aI3447
aI9537
aI13648
aI10401
aI2564
aI18343
aI8092
aI5218
aI19132
aI9747
aI7925
aI16574
aI11051
aI14079
aI16443
aI9335
aI6958
aI3779
aI19458
aI16546
aI9388
aI3752
aI18468
aI19184
aI16231
aI537
aI10499
aI18991
aI12285
aI11307
aI17668
aI19372
aI13356
aI14185
aI18826
aI12903
aI8527
aI14912
aI9510
aI16928
aI16210
aI9042
aI8932
aI1402
aI19169
aI3252
aI12774
aI19123
aI8892
aI3931
aI9590
aI16705
aI8427
aI3930
aI12079
aI6171
aI3682
aI5777
aI14529
aI19161
aI15898
aI13962
aI714
aI13070
aI10597
aI17172
aI15738
aI17645
aI3080
aI5412
aI9653
aI17549
aI3001
aI10299
aI8141
aI19288
aI3583
aI16334
aI17358
aI14765
aI496
aI13585
aI17381
aI14989
aI17287
aI1356
aI1938
aI16413
aI8924
aI11831
aI2639
aI12163
aI9018
aI17561
aI16757
aI8569
aI8531
aI731
aI15037
aI10636
aI2317
aI310
aI11123
aI16981
aI5811
aI16546
aI12796
aI7961
aI12443
aI10447
aI2708
aI8288
aI723
aI4032
aI15081
aI11671
aI16983
aI12783
aI14446
aI1690
aI3307
aI12512
aI11289
aI4875
aI10480
aI4372
aI3381
aI8102
aI16358
aI7164
aI5557
aI9662
aI12270
aI377
aI15961
aI10322
aI19273
aI15300
aI13957
aI16351
aI14343
aI13402
aI14834
aI14813
aI4761
aI18218
aI1344
aI1167
aI14260
aI8192
aI8060
aI75
aI15630
aI5164
aI2811
aI14485
aI8777
aI5814
aI18601
aI16979
aI5130
aI6169
aI14603
aI11655
aI6429
aI8632
aI17910
aI16308
aI16242
aI2460
aI1017
aI3385
aI14277
aI5020
aI13883
aI12479
aI8503
aI17710
aI17754
aI9645
aI2967
aI5385
aI1763
aI3537
aI7794
aI5480
aI12300
aI18742
aI16232
aI17859
aI8439
aI1599
aI13062
aI5223
aI18191
aI13934
aI17456
aI18740
aI372
aI10252
aI8152
aI18159
aI9597
aI14723
aI2678
aI11172
aI8367
aI4419
aI7030
aI11039
aI5755
aI19833
aI19696
aI19359
aI10805
aI14685
aI4025
aI16699
aI13753
aI14196
aI2607
aI8295
aI16388
aI5513
aI6548
aI323
aI6309
aI1132
aI10133
aI13629
aI9759
aI17449
aI1663
aI2825
aI12187
aI1543
aI16521
aI4730
aI2359
aI8114
aI15594
aI9113
aI13086
aI19671
aI19179
aI16564
aI12735
aI9597
aI14406
aI3365
aI5224
aI9998
aI498
aI9082
aI11786
aI5378
aI19706
aI13137
aI12565
aI4814
aI4559
aI378
aI7649
aI5351
aI14806
aI3455
aI1433
aI13306
aI6942
aI9320
aI7079
aI5678
aI14146
aI10041
aI16475
aI4249
aI15724
aI11849
aI10680
aI11821
aI3938
aI13321
aI17260
aI15028
aI13756
aI148
aI19943
aI6516
aI12718
aI12296
aI6579
aI9442
aI19637
aI8267
aI8742
aI4005
aI12871
aI4612
aI15281
aI7281
aI10219
aI17336
aI17188
aI14958
aI9892
aI540
aI6598
aI15500
aI3793
aI8755
aI5586
aI9968
aI10967
aI2115
aI4909
aI5812
aI4151
aI4851
aI19102
aI18924
aI17838
aI19395
aI18712
aI1450
aI3936
aI1219
aI9299
aI4824
aI15069
aI19358
aI13753
aI14967
aI6889
aI1956
aI3483
aI10421
aI11968
aI14293
aI1765
aI12763
aI10009
aI13687
aI9548
aI16255
aI10097
aI16515
aI14304
aI13200
aI18964
aI13942
aI5462
aI2359
aI1717
aI1626
aI9537
aI18229
aI3088
aI11182
aI16252
aI7336
aI5370
aI15144
aI12002
aI1315
aI11435
aI10651
aI416
aI3637
aI16985
aI6142
aI1784
aI12886
aI10207
aI3707
aI3446
aI3723
aI11931
aI11709
aI16400
aI11234
aI8241
aI10939
aI4725
aI487
aI1948
aI10133
aI19738
aI2720
aI17158
aI6056
aI7751
aI11247
aI3500
aI9307
aI7249
aI14238
aI10652
aI103
aI929
aI4967
aI11955
aI16989
aI939
aI10863
aI13093
aI8179
aI7093
aI16558
aI13081
aI7427
aI1048
aI16461
aI3851
aI8868
aI18148
aI3760
aI17751
aI7035
aI920
aI8218
aI18005
aI4190
aI19514
aI5589
aI12262
aI6897
aI15182
aI9120
aI15524
aI3365
aI10948
aI6425
aI18710
aI7830
aI18144
aI8209
aI11052
aI11742
aI7325
aI15398
aI15298
aI5545
aI8566
aI17521
aI9356
aI15048
aI10537
aI19631
aI2394
aI18991
aI9466
aI6767
aI9241
aI12240
aI12166
aI5415
aI2037
aI1121
aI14975
aI13196
aI6929
aI6296
aI2020
aI4582
aI6597
aI18652
aI14884
aI2604
aI17398
aI16391
aI1952
aI18062
aI18734
aI11276
aI19158
aI16695
aI8427
aI1589
aI9303
aI10908
aI5592
aI9667
aI9535
aI11624
aI19173
aI6720
aI19637
aI18698
aI2392
aI4591
aI7446
aI16452
aI3068
aI18588
aI13749
aI15287
aI3630
aI5878
aI18929
aI18369
aI4319
aI189
aI11045
aI1375
aI13943
aI17282
aI8771
aI1837
aI15185
aI1921
aI58
aI532
aI14134
aI16213
aI9274
aI5191
aI2634
aI17413
aI19640
aI9564
aI5730
aI6326
aI289
aI211
aI17650
aI7655
aI19191
aI817
aI9707
aI11927
aI8575
aI7244
aI13281
aI238
aI3681
aI18665
aI17916
aI17513
aI11790
aI9597
aI7879
aI8004
aI5352
aI18818
aI12606
aI1865
aI11318
aI10130
aI7724
aI9626
aI13910
aI17768
aI19210
aI1639
aI8546
aI10780
aI1273
aI2863
aI1034
aI12341
aI6311
aI257
aI12299
aI3165
aI7864
aI2238
aI19398
aI18446
aI1615
aI6927
aI8431
aI8551
aI6129
aI129
aI12753
aI14831
aI2692
aI17128
aI11934
aI16501
aI3346
aI13181
aI757
aI10646
aI15221
aI9308
aI13870
aI1258
aI2099
aI7335
aI3042
aI2471
aI12830
aI11711
aI12543
aI2689
aI10730
aI14813
aI19513
aI7859
aI17206
aI9442
aI14755
aI13779
aI14708
aI2509
aI14339
aI145
aI17906
aI1297
aI7228
aI2641
aI4539
aI2886
aI9454
aI3014
aI13798
aI13300
aI4363
aI16218
aI6797
aI11832
aI7162
aI3113
aI7097
aI22
aI1808
aI16841
aI3452
aI19802
aI5426
aI3248
aI12266
aI13100
aI9996
aI13475
aI13041
aI6490
aI2001
aI19252
aI6307
aI17157
aI12138
aI9432
aI17370
aI3753
aI3978
aI9043
aI2329
aI10959
aI19888
aI18455
aI5999
aI3131
aI5160
aI9597
aI18139
aI15198
aI3580
aI3157
aI6901
aI3123
aI5111
aI6574
aI2307
aI10297
aI4750
aI14217
aI2088
aI16264
aI12475
aI16844
aI11084
aI12534
aI6977
aI15167
aI9298
aI891
aI14662
aI9303
aI2493
aI9971
aI14147
aI8029
aI264
aI7278
aI2401
aI14465
aI416
aI5190
aI16338
aI9338
aI11054
aI17590
aI10160
aI12824
aI4145
aI13520
aI13866
aI8641
aI14099
aI14565
aI5936
aI11201
aI5422
aI7657
aI13695
aI2645
aI15830
aI7830
aI3229
aI2994
aI19976
aI9739
aI17283
aI10687
aI12254
aI2595
aI5589
aI6174
aI8353
aI4172
aI2729
aI10701
aI16487
aI19958
aI15888
aI6869
aI9026
aI5930
aI4617
aI8085
aI12795
aI11394
aI16925
aI7082
aI18776
aI19604
aI17710
aI18525
aI6990
aI2953
aI10655
aI1121
aI7735
aI19363
aI9195
aI11616
aI10248
aI760
aI335
aI661
aI13706
aI2291
aI14326
aI13308
aI6996
aI12044
aI18930
aI13992
aI12193
aI9749
aI8744
aI9024
aI5959
aI3458
aI2228
aI13375
aI16006
aI18070
aI8402
aI5267
aI15732
aI11681
aI15569
aI5351
aI5239
aI9196
aI900
aI12014
aI12149
aI7815
aI2137
aI16148
aI10510
aI1069
aI5643
aI5405
aI9305
aI17408
aI3066
aI20000
aI2189
aI10465
aI13064
aI18517
aI17433
aI10161
aI17017
aI14522
aI9042
aI18443
aI1275
aI16113
aI18289
aI4359
aI8173
aI6099
aI18891
aI5425
aI17707
aI10725
aI1514
aI7444
aI11523
aI1629
aI135
aI467
aI1402
aI14405
aI16553
aI7990
aI9608
aI9614
aI15067
aI18310
aI17943
aI1431
aI9360
aI19399
aI17159
aI19180
aI2694
aI4541
aI8301
aI1702
aI7223
aI13517
aI17377
aI1592
aI12177
aI690
aI63
aI3436
aI3844
aI17535
aI14250
aI5081
aI9187
aI853
aI6854
aI18563
aI19926
aI16719
aI3493
aI9603
aI7475
aI12752
aI4123
aI2938
aI10547
aI13970
aI624
aI5432
aI18425
aI155
aI13844
aI6054
aI2883
aI6096
aI13324
aI16481
aI1165
aI16372
aI16378
aI15506
aI6331
aI5400
aI13515
aI18719
aI2288
aI4060
aI8569
aI13417
aI17619
aI1814
aI19186
aI4140
aI11656
aI11635
aI10292
aI6385
aI18723
aI14966
aI7948
aI15175
aI17911
aI3433
aI13783
aI539
aI7720
aI16076
aI6789
aI12701
aI15042
aI11926
aI15565
aI17438
aI17279
aI10868
aI13772
aI15569
aI4463
aI11092
aI42
aI9308
aI2260
aI1088
aI13713
aI3004
aI17249
aI13878
aI1732
aI7157
aI6347
aI11856
aI9003
aI1798
aI16326
aI3753
aI14844
aI15708
aI5064
aI8062
aI5552
aI7195
aI9228
aI6602
aI17909
aI154
aI10343
aI17394
aI5928
aI11222
aI6992
aI16266
aI5263
aI11558
aI6342
aI7909
aI16687
aI18040
aI1155
aI2908
aI17180
aI8611
aI19372
aI10507
aI7217
aI16837
aI4539
aI6774
aI1881
aI10614
aI2078
aI12329
aI18969
aI5530
aI4327
aI2373
aI10893
aI4816
aI6458
aI11690
aI11953
aI19174
aI2110
aI7397
aI17877
aI19412
aI3483
aI10409
aI12359
aI2799
aI14506
aI6960
aI17378
aI827
aI4089
aI9256
aI4389
aI9043
aI1944
aI18057
aI6842
aI3959
aI19023
aI18901
aI3046
aI10012
aI13967
aI2252
aI16543
aI11501
aI960
aI2835
aI14672
aI36
aI994
aI16356
aI154
aI18843
aI18363
aI16337
aI12862
aI17136
aI3490
aI8971
aI18218
aI389
aI14962
aI11088
aI7776
aI10621
aI5148
aI2622
aI18352
aI15050
aI6
aI19297
aI14116
aI17662
aI17040
aI17523
aI9777
aI18885
aI6779
aI17329
aI15480
aI15619
aI17014
aI11611
aI1690
aI7990
aI1711
aI19863
aI2841
aI11796
aI1914
aI10168
aI12460
aI13768
aI19966
aI15974
aI15036
aI17033
aI19027
aI4324
aI3691
aI1734
aI4340
aI16016
aI11210
aI9558
aI3065
aI12649
aI8917
aI165
aI13346
aI2383
aI2673
aI6307
aI4182
aI7978
aI8097
aI13269
aI4876
aI1234
aI10964
aI15825
aI13508
aI15753
aI6792
aI8294
aI5341
aI15297
aI13133
aI12672
aI16363
aI8689
aI12525
aI17650
aI2356
aI15628
aI10127
aI12918
aI7300
aI6301
aI13932
aI6496
aI4394
aI19376
aI4109
aI3688
aI589
aI911
aI11661
aI19989
aI16852
aI699
aI5309
aI7886
aI3698
aI7655
aI19602
aI14283
aI13123
aI15898
aI13111
aI18132
aI19885
aI8200
aI13154
aI6373
aI17445
aI16151
aI12590
aI8961
aI6936
aI15920
aI5816
aI8059
aI2026
aI19974
aI2717
aI12708
aI5122
aI15737
aI9232
aI4047
aI5570
aI12105
aI19877
aI11269
aI17325
aI6895
aI10419
aI10587
aI5381
aI18013
aI19763
aI7611
aI13351
aI1064
aI4589
aI10415
aI18368
aI4986
aI3682
aI1796
aI7402
aI13272
aI17606
aI4046
aI7513
aI14345
aI18670
aI7528
aI18007
aI18250
aI15573
aI5075
aI17127
aI12497
aI15300
aI7965
aI214
aI12051
aI12177
aI1541
aI13849
aI18827
aI8097
aI18335
aI5018
aI202
aI6744
aI15854
aI19445
aI15704
aI3184
aI5994
aI14345
aI5124
aI8430
aI18329
aI12108
aI12496
aI18477
aI2724
aI5082
aI4967
aI170
aI497
aI15405
aI14013
aI7432
aI8038
aI13996
aI12026
aI19377
aI677
aI14550
aI11940
aI14421
aI6353
aI1717
aI8170
aI18948
aI15833
aI5866
aI8109
aI11046
aI18819
aI8035
aI570
aI1403
aI2772
aI7318
aI12233
aI805
aI570
aI8300
aI8305
aI7399
aI13344
aI3416
aI14283
aI17957
aI511
aI11978
aI6968
aI2068
aI534
aI11089
aI14314
aI3052
aI18654
aI5331
aI5004
aI13292
aI621
aI18925
aI2386
aI13413
aI16879
aI9360
aI11106
aI11576
aI9266
aI12745
aI10430
aI19765
aI15120
aI5087
aI3573
aI8857
aI10623
aI5758
aI3361
aI2035
aI13230
aI3318
aI14434
aI18309
aI13512
aI14770
aI19969
aI1884
aI13049
aI6894
aI19086
aI17275
aI15376
aI18989
aI5258
aI4887
aI9785
aI5109
aI15562
aI3302
aI19503
aI17514
aI19726
aI7495
aI4588
aI13555
aI6708
aI11715
aI5156
aI8128
aI6687
aI10136
aI705
aI17952
aI3914
aI691
aI14731
aI17181
aI7677
aI12371
aI18598
aI16252
aI8505
aI5570
aI15833
aI1375
aI16755
aI4217
aI13270
aI2206
aI8802
aI12542
aI11272
aI17375
aI124
aI4801
aI19250
aI15100
aI5986
aI18550
aI9528
aI10740
aI15331
aI3400
aI13839
aI18137
aI9305
aI2487
aI4733
aI2709
aI12850
aI2397
aI18951
aI3027
aI14172
aI12128
aI18789
aI706
aI9318
aI16395
aI10956
aI11664
aI2703
aI4830
aI9499
aI2742
aI10970
aI17806
aI9734
aI11089
aI1689
aI3065
aI7125
aI6201
aI17679
aI11003
aI6927
aI3581
aI14853
aI4663
aI5892
aI17575
aI19534
aI17730
aI7164
aI5930
aI7635
aI13036
aI5036
aI3919
aI13198
aI16008
aI1026
aI424
aI8874
aI52
aI993
aI8057
aI7613
aI2339
aI17184
aI17853
aI184
aI14827
aI10037
aI18268
aI10085
aI2444
aI19832
aI5117
aI1890
aI18777
aI13818
aI6068
aI12813
aI6680
aI14171
aI6852
aI2188
aI18352
aI15148
aI17516
aI6188
aI9677
aI5269
aI12555
aI9023
aI18335
aI19966
aI14496
aI11114
aI19002
aI7416
aI2003
aI9480
aI9097
aI6748
aI14690
aI12896
aI11147
aI15292
aI2466
aI13742
aI6314
aI5984
aI5969
aI5361
aI14737
aI10650
aI15413
aI6536
aI3984
aI19468
aI13321
aI6050
aI4705
aI14009
aI17604
aI19452
aI7395
aI12136
aI6598
aI17910
aI10966
aI9713
aI4768
aI10209
aI11402
aI90
aI6911
aI1527
aI9428
aI4337
aI9302
aI15299
aI11986
aI2530
aI3880
aI19913
aI8555
aI9599
aI16697
aI4529
aI16292
aI14854
aI18426
aI7922
aI4442
aI1629
aI2469
aI9067
aI18719
aI8968
aI11250
aI9713
aI6344
aI1137
aI12938
aI11136
aI17913
aI16739
aI18710
aI3395
aI3254
aI6881
aI6484
aI6874
aI1320
aI3349
aI10365
aI5650
aI38
aI10035
aI11543
aI18682
aI9670
aI12384
aI3210
aI1056
aI10474
aI6390
aI17738
aI9373
aI875
aI2965
aI5053
aI17765
aI19738
aI19905
aI7803
aI13649
aI19077
aI6702
aI8430
aI156
aI18376
aI3065
aI9069
aI1728
aI13732
aI5454
aI9730
aI14673
aI14562
aI15034
aI13182
aI11565
aI2583
aI16563
aI5597
aI4316
aI3800
aI6395
aI16850
aI12663
aI6653
aI7400
aI12324
aI6529
aI17223
aI11276
aI11750
aI6088
aI14802
aI8144
aI1843
aI1405
aI8662
aI14700
aI13588
aI9588
aI14282
aI6475
aI5175
aI10897
aI3709
aI10345
aI15241
aI16650
aI18747
aI1822
aI17752
aI9369
aI4520
aI16631
aI1608
aI5990
aI15303
aI782
aI1957
aI14018
aI12470
aI17256
aI7773
aI11866
aI16739
aI15780
aI13432
aI2659
aI13192
aI3905
aI4761
aI4382
aI1158
aI249
aI16238
aI1747
aI13369
aI3865
aI18146
aI17730
aI6078
aI3542
aI19670
aI4323
aI3022
aI18139
aI1213
aI9177
aI11547
aI12208
aI15567
aI6734
aI17615
aI4110
aI15230
aI15747
aI17938
aI9120
aI492
aI17864
aI7286
aI6483
aI6553
aI10899
aI11693
aI7241
aI18746
aI3306
aI1265
aI14787
aI6409
aI16452
aI1968
aI1751
aI12340
aI14104
aI722
aI9589
aI5055
aI17329
aI10893
aI17156
aI7935
aI9617
aI3694
aI10899
aI15770
aI129
aI1475
aI10223
aI16967
aI10955
aI5926
aI19380
aI19411
aI19508
aI4755
aI14925
aI6128
aI14382
aI11683
aI12062
aI16686
aI13006
aI1354
aI10424
aI6756
aI13532
aI16453
aI1233
aI10606
aI499
aI18084
aI11120
aI13078
aI3372
aI13048
aI17031
aI313
aI9644
aI3133
aI4569
aI8396
aI10483
aI13352
aI10301
aI9160
aI18840
aI12788
aI16767
aI11442
aI11516
aI9127
aI2111
aI7323
aI9509
aI3814
aI11633
aI14281
aI13192
aI1557
aI2367
aI16477
aI197
aI2874
aI15149
aI132
aI18138
aI13244
aI13699
aI5537
aI8649
aI14794
aI15328
aI15744
aI12912
aI9408
aI17020
aI1161
aI7805
aI16291
aI14243
aI1407
aI737
aI2741
aI15373
aI9780
aI17374
aI8794
aI15697
aI5125
aI12517
aI18513
aI19196
aI11950
aI8658
aI16984
aI6285
aI16306
aI2750
aI2332
aI12790
aI16298
aI3907
aI8017
aI10084
aI17759
aI16975
aI14070
aI1017
aI18864
aI14727
aI6830
aI10125
aI16420
aI5661
aI10350
aI5706
aI19120
aI13810
aI19917
aI2891
aI1574
aI5834
aI4115
aI1420
aI17828
aI16753
aI6805
aI14349
aI3840
aI15764
aI16007
aI9750
aI1796
aI103
aI16047
aI3886
aI17778
aI3779
aI1931
aI17232
aI4519
aI11609
aI4115
aI10938
aI10146
aI7462
aI4959
aI4519
aI2228
aI8395
aI6753
aI15427
aI16445
aI6273
aI122
aI18799
aI15023
aI2769
aI8453
aI11280
aI6265
aI17038
aI16516
aI5204
aI15356
aI1885
aI451
aI2688
aI10249
aI11126
aI14919
aI6675
aI3079
aI14013
aI19193
aI5297
aI18008
aI4770
aI6766
aI1024
aI943
aI15064
aI11795
aI16660
aI14861
aI17780
aI4975
aI7579
aI11843
aI3935
aI7917
aI18240
aI487
aI7427
aI3653
aI631
aI9077
aI3909
aI1715
aI15670
aI17401
aI16917
aI1342
aI9097
aI13708
aI2173
aI16061
aI9010
aI14932
aI10607
aI3974
aI8799
aI1660
aI5505
aI6063
aI15018
aI11527
aI4359
aI17856
aI9500
aI1248
aI10513
aI18416
aI18711
aI17292
aI2502
aI10377
aI5902
aI12925
aI10845
aI8382
aI18419
aI16198
aI5284
aI7701
aI3200
aI9919
aI3532
aI19783
aI4858
aI632
aI13936
aI9670
aI12152
aI12968
aI4554
aI1936
aI16257
aI5820
aI7327
aI7800
aI1371
aI464
aI13921
aI3133
aI8524
aI10371
aI9876
aI10203
aI1593
aI9036
aI11251
aI11140
aI7506
aI14836
aI8313
aI7829
aI9223
aI11091
aI3366
aI2216
aI9443
aI18744
aI3764
aI8648
aI4192
aI4607
aI12928
aI16946
aI14730
aI12786
aI15497
aI4977
aI11493
aI16878
aI17932
aI10265
aI6063
aI18412
aI12823
aI3657
aI14713
aI7284
aI6754
aI14351
aI5211
aI9123
aI11698
aI6074
aI15098
aI19052
aI18977
aI9135
aI1228
aI15474
aI10163
aI19129
aI19676
aI2465
aI2677
aI10595
aI3638
aI13322
aI11416
aI13496
aI10811
aI8610
aI6597
aI2176
aI2190
aI15330
aI3043
aI1428
aI17893
aI17796
aI7932
aI1742
aI13175
aI16244
aI6099
aI6899
aI16829
aI10570
aI2399
aI1271
aI14142
aI16073
aI5679
aI10140
aI10148
aI8152
aI5578
aI5231
aI13973
aI4594
aI3527
aI12119
aI18479
aI2478
aI7308
aI12807
aI2581
aI1355
aI2156
aI9938
aI4107
aI2500
aI2543
aI5594
aI13772
aI9223
aI6069
aI192
aI2070
aI10375
aI8920
aI12695
aI9623
aI9175
aI3061
aI206
aI353
aI15116
aI14995
aI17601
aI2503
aI11583
aI8917
aI3543
aI16482
aI1497
aI7417
aI5710
aI4339
aI5396
aI15318
aI2386
aI7096
aI2370
aI5084
aI8325
aI18706
aI17487
aI3915
aI5955
aI7485
aI11753
aI18713
aI9663
aI4729
aI16842
aI17890
aI19210
aI14873
aI13444
aI18736
aI5809
aI18731
aI545
aI3732
aI14167
aI16851
aI18659
aI18735
aI1188
aI18844
aI8093
aI15082
aI14095
aI19079
aI12975
aI227
aI5175
aI7782
aI1207
aI5752
aI16944
aI16631
aI12096
aI18659
aI12094
aI8600
aI10513
aI19404
aI15433
aI10510
aI1684
aI18352
aI16747
aI5143
aI18393
aI1079
aI14433
aI10958
aI17167
aI10138
aI15565
aI12869
aI16716
aI11926
aI4930
aI16790
aI6
aI17820
aI5129
aI19653
aI2348
aI10896
aI13127
aI14743
aI14305
aI13564
aI338
aI16477
aI5854
aI9132
aI6040
aI13462
aI9934
aI15683
aI2452
aI8947
aI5680
aI9172
aI10537
aI16371
aI3196
aI18452
aI18412
aI863
aI17040
aI11149
aI3118
aI1088
aI18979
aI5829
aI2864
aI11436
aI14717
aI12589
aI11924
aI15571
aI6311
aI3064
aI16386
aI18513
aI18462
aI19257
aI698
aI16469
aI5717
aI7819
aI11228
aI17358
aI14180
aI16702
aI12766
aI7703
aI5176
aI3092
aI3343
aI9988
aI10047
aI19633
aI7931
aI9347
aI18819
aI10402
aI14441
aI8996
aI17561
aI16287
aI5678
aI15247
aI18700
aI10305
aI7276
aI3311
aI4115
aI16082
aI6263
aI6821
aI3873
aI11072
aI2558
aI69
aI17642
aI9253
aI12057
aI9123
aI15551
aI16926
aI7245
aI142
aI6942
aI8342
aI10513
aI18073
aI18596
aI8064
aI1847
aI6375
aI4136
aI4848
aI13787
aI18789
aI5231
aI2326
aI838
aI16642
aI2484
aI9423
aI653
aI7616
aI17626
aI11237
aI10206
aI19504
aI1531
aI4047
aI19724
aI11741
aI16710
aI9480
aI16855
aI1467
aI3962
aI124
aI18682
aI15888
aI8971
aI2040
aI2238
aI13063
aI2464
aI3823
aI7975
aI16460
aI7886
aI17539
aI18524
aI1397
aI18861
aI15947
aI13730
aI3960
aI1713
aI17616
aI11568
aI13114
aI15945
aI2187
aI17174
aI10099
aI3272
aI8829
aI11906
aI8625
aI17894
aI9578
aI8075
aI13490
aI14688
aI18124
aI6685
aI12226
aI3240
aI16009
aI17845
aI8880
aI8234
aI345
aI3008
aI18818
aI13501
aI5118
aI9198
aI15145
aI4000
aI13701
aI4328
aI3250
aI8111
aI15386
aI18010
aI12884
aI4054
aI2912
aI5351
aI3918
aI13433
aI7400
aI4053
aI4267
aI13805
aI16342
aI16405
aI6578
aI7247
aI3267
aI15368
aI7941
aI9075
aI19421
aI17123
aI10504
aI738
aI2352
aI2370
aI7600
aI7024
aI1128
aI7231
aI17044
aI3716
aI550
aI3981
aI15540
aI15859
aI5699
aI14079
aI7619
aI12911
aI5751
aI11764
aI14829
aI16388
aI17744
aI4903
aI18327
aI18000
aI10963
aI9177
aI14515
aI2145
aI10489
aI17583
aI1138
aI3521
aI19657
aI7910
aI10162
aI11347
aI3484
aI3686
aI2266
aI19487
aI14340
aI317
aI3750
aI7377
aI15627
aI12754
aI1582
aI3722
aI17524
aI5734
aI13448
aI19941
aI14376
aI9963
aI5848
aI9238
aI8126
aI12233
aI16197
aI1366
aI8578
aI14580
aI200
aI16075
aI8874
aI19983
aI10390
aI13960
aI13601
aI7690
aI6537
aI18413
aI13028
aI2336
aI3969
aI11133
aI12777
aI18092
aI19225
aI8529
aI7918
aI7971
aI7448
aI13241
aI5055
aI14994
aI16498
aI4054
aI8361
aI4921
aI11822
aI7821
aI2375
aI2366
aI6117
aI15451
aI16776
aI12315
aI18142
aI13707
aI16597
aI6777
aI12301
aI11675
aI2348
aI7169
aI135
aI955
aI18449
aI7835
aI9453
aI9010
aI15303
aI9966
aI15257
aI3650
aI8400
aI15388
aI1871
aI16804
aI2903
aI9103
aI17675
aI6139
aI13001
aI15457
aI19417
aI6560
aI1969
aI18622
aI10388
aI5811
aI10510
aI15963
aI12624
aI14381
aI6268
aI18933
aI8697
aI1021
aI19740
aI2706
aI16462
aI1243
aI8836
aI1264
aI6050
aI6896
aI12907
aI8231
aI14422
aI19826
aI4251
aI4772
aI1813
aI15397
aI12902
aI997
aI18515
aI9699
aI5028
aI4084
aI864
aI19081
aI4774
aI7099
aI17479
aI3026
aI175
aI16573
aI3905
aI13287
aI4619
aI6481
aI11286
aI19115
aI2225
aI17325
aI71
aI5607
aI5230
aI2956
aI7721
aI14348
aI11533
aI12151
aI17118
aI2694
aI10546
aI3274
aI9829
aI17733
aI14653
aI11748
aI8767
aI4299
aI12661
aI15188
aI270
aI18910
aI14611
aI145
aI11245
aI7624
aI19139
aI9770
aI11032
aI12025
aI5249
aI13897
aI18616
aI7398
aI3159
aI3422
aI6815
aI19687
aI19250
aI8046
aI16367
aI4890
aI1496
aI2169
aI10820
aI4120
aI18304
aI14189
aI12488
aI3220
aI8184
aI3656
aI8652
aI3968
aI18987
aI19272
aI6529
aI12527
aI8217
aI3283
aI8149
aI11564
aI10110
aI11030
aI13579
aI19185
aI7595
aI6290
aI17023
aI12163
aI11138
aI16646
aI9370
aI5941
aI4307
aI12936
aI13886
aI10575
aI19663
aI2068
aI14286
aI18719
aI18802
aI8897
aI10109
aI10520
aI6934
aI3864
aI17432
aI4325
aI1978
aI12905
aI16501
aI5321
aI18021
aI18486
aI16318
aI16678
aI12986
aI17740
aI7122
aI16416
aI5376
aI5327
aI23
aI17976
aI13764
aI17077
aI1708
aI6881
aI15541
aI6154
aI17577
aI11353
aI2549
aI18941
aI60
aI14271
aI1792
aI7891
aI5794
aI12548
aI883
aI10813
aI13768
aI983
aI5573
aI19029
aI15342
aI8588
aI13061
aI3756
aI13114
aI701
aI15815
aI13284
aI8118
aI9159
aI5825
aI12071
aI16570
aI14121
aI16024
aI11053
aI7630
aI7662
aI9531
aI6243
aI3335
aI18262
aI4962
aI15859
aI14158
aI14776
aI1662
aI17717
aI2510
aI11200
aI4570
aI10898
aI12545
aI18069
aI13000
aI12666
aI9716
aI15731
aI4077
aI18785
aI7566
aI8542
aI7962
aI5598
aI13100
aI11587
aI3846
aI10293
aI12064
aI18268
aI16938
aI16013
aI17369
aI12624
aI11447
aI2328
aI13978
aI1477
aI18611
aI17586
aI18655
aI12305
aI2789
aI14646
aI7373
aI17271
aI5579
aI14077
aI1027
aI5699
aI6534
aI13454
aI12805
aI4895
aI1818
aI9899
aI10787
aI10965
aI16821
aI16242
aI12749
aI4294
aI13688
aI10977
aI15625
aI18899
aI13948
aI9687
aI543
aI7569
aI15179
aI16933
aI4861
aI10487
aI10165
aI17426
aI5482
aI18787
aI17403
aI4951
aI19702
aI2326
aI6901
aI1187
aI19605
aI8121
aI19458
aI2142
aI293
aI9546
aI2847
aI584
aI10113
aI13871
aI9376
aI4678
aI14443
aI9123
aI15822
aI1080
aI11307
aI5031
aI8741
aI13703
aI12966
aI15393
aI14631
aI16267
aI19310
aI5296
aI16149
aI13260
aI14059
aI17736
aI14117
aI10221
aI6387
aI6718
aI5918
aI6107
aI4802
aI12136
aI10002
aI1506
aI12652
aI12584
aI4940
aI13089
aI12546
aI17967
aI10922
aI19068
aI16458
aI3606
aI9911
aI6819
aI16342
aI14262
aI9974
aI13362
aI10643
aI14168
aI13085
aI19206
aI7206
aI6621
aI11422
aI1566
aI11465
aI12304
aI18449
aI12219
aI10624
aI10664
aI7136
aI9805
aI23
aI11552
aI8194
aI7234
aI3314
aI7048
aI10136
aI898
aI666
aI390
aI8442
aI7396
aI10867
aI14514
aI2973
aI17647
aI1362
aI8977
aI11154
aI2425
aI4262
aI12639
aI19074
aI1789
aI78
aI5663
aI8355
aI5294
aI8944
aI3663
aI3987
aI6711
aI16244
aI3045
aI18187
aI15517
aI2645
aI13698
aI19797
aI9079
aI5729
aI71
aI7775
aI14090
aI13674
aI1035
aI17763
aI3248
aI18656
aI18569
aI1393
aI17577
aI10272
aI6533
aI14441
aI466
aI7070
aI220
aI11462
aI16148
aI18252
aI10427
aI16726
aI17517
aI4551
aI5897
aI10337
aI14071
aI471
aI18815
aI19243
aI13036
aI4730
aI12737
aI6543
aI2288
aI2095
aI12245
aI17545
aI6752
aI2757
aI10842
aI15286
aI18375
aI7119
aI18590
aI13130
aI4460
aI1138
aI9985
aI18023
aI1612
aI7898
aI19963
aI8951
aI11163
aI349
aI12441
aI17114
aI18274
aI17518
aI4554
aI9254
aI15419
aI11140
aI11930
aI17451
aI16326
aI7985
aI12477
aI1990
aI3706
aI10065
aI5996
aI15144
aI12781
aI16475
aI18978
aI5841
aI15102
aI12397
aI4204
aI1092
aI6148
aI13464
aI17954
aI13866
aI19740
aI17179
aI1436
aI4721
aI8572
aI9516
aI12054
aI1054
aI5762
aI8302
aI2666
aI7903
aI3431
aI14677
aI16809
aI15797
aI19139
aI11957
aI17927
aI381
aI15473
aI11969
aI110
aI113
aI8226
aI381
aI13630
aI845
aI10300
aI18717
aI11059
aI5497
aI19872
aI5439
aI1592
aI3327
aI334
aI5508
aI4247
aI85
aI3073
aI1378
aI3648
aI15552
aI12655
aI18423
aI12183
aI13782
aI182
aI2146
aI7746
aI295
aI12873
aI8352
aI3924
aI17322
aI12234
aI13260
aI17879
aI17794
aI18799
aI15674
aI13129
aI7072
aI19408
aI16166
aI13092
aI13462
aI16042
aI12254
aI7404
aI5885
aI16976
aI12674
aI12390
aI18508
aI61
aI13559
aI17672
aI1501
aI3000
aI2455
aI6818
aI846
aI14686
aI897
aI7145
aI7153
aI17367
aI8312
aI4636
aI16541
aI14251
aI16057
aI17282
aI5217
aI9956
aI19770
aI1064
aI9893
aI18639
aI12826
aI18474
aI8854
aI15243
aI3459
aI6816
aI11801
aI708
aI11716
aI3866
aI4495
aI18
aI12314
aI7777
aI9525
aI17176
aI3172
aI8954
aI6413
aI19224
aI17776
aI8461
aI10534
aI4872
aI7027
aI411
aI15077
aI8094
aI6919
aI6619
aI17708
aI8304
aI19362
aI16665
aI6990
aI15053
aI16729
aI2921
aI7327
aI2559
aI18821
aI11005
aI18737
aI8430
aI2469
aI17519
aI16933
aI12128
aI4006
aI10035
aI19922
aI14500
aI3323
aI11688
aI2941
aI4996
aI424
aI13338
aI5000
aI10121
aI8129
aI810
aI13338
aI13350
aI15537
aI12172
aI2418
aI11840
aI12857
aI16195
aI16037
aI17196
aI18205
aI10055
aI17813
aI4429
aI13128
aI8907
aI9193
aI2489
aI10023
aI10550
aI13486
aI1898
aI19257
aI10413
aI4382
aI12517
aI19272
aI12142
aI5344
aI13589
aI15174
aI19063
aI3089
aI18389
aI13340
aI74
aI4246
aI16806
aI9666
aI5978
aI18447
aI923
aI13175
aI6765
aI19574
aI10839
aI17173
aI18994
aI10055
aI9757
aI5448
aI17156
aI3469
aI2662
aI11494
aI30
aI8158
aI9771
aI14832
aI6950
aI14058
aI3616
aI3753
aI19615
aI6004
aI3294
aI10912
aI4395
aI11915
aI13527
aI30
aI8794
aI19735
aI12199
aI11740
aI14146
aI15559
aI15246
aI3121
aI6794
aI3436
aI3870
aI10642
aI18928
aI1776
aI10040
aI4993
aI521
aI6972
aI5720
aI16456
aI1230
aI11069
aI11549
aI2933
aI13986
aI4508
aI5094
aI1677
aI11713
aI6711
aI9320
aI19485
aI19280
aI11370
aI9197
aI2714
aI18523
aI15261
aI7523
aI10892
aI11396
aI1841
aI12533
aI13831
aI7512
aI5417
aI10960
aI3406
aI18852
aI14738
aI9717
aI11147
aI4982
aI10247
aI3079
aI19341
aI13729
aI1180
aI6367
aI9001
aI16260
aI190
aI10856
aI8679
aI3266
aI16542
aI8158
aI7479
aI5666
aI16592
aI19222
aI10536
aI7186
aI1726
aI18954
aI19779
aI10866
aI15339
aI16763
aI291
aI5517
aI10970
aI7402
aI14173
aI2848
aI9913
aI293
aI9603
aI5428
aI19366
aI15405
aI17410
aI11568
aI7298
aI14895
aI12094
aI16718
aI14585
aI2414
aI2894
aI10634
aI17881
aI1838
aI1159
aI13651
aI13566
aI4730
aI8122
aI4961
aI6045
aI10882
aI5471
aI11036
aI18135
aI7507
aI6206
aI4600
aI19656
aI7883
aI15603
aI9122
aI17758
aI12525
aI7955
aI7705
aI17708
aI8389
aI12288
aI11245
aI15493
aI14361
aI14047
aI1340
aI16582
aI5069
aI14642
aI11252
aI4583
aI2421
aI12498
aI19093
aI2942
aI1797
aI459
aI6216
aI14728
aI11301
aI172
aI7517
aI8643
aI4492
aI17197
aI609
aI15331
aI4934
aI19598
aI16302
aI11810
aI12379
aI8384
aI14724
aI1385
aI19395
aI19835
aI8856
aI9028
aI6772
aI17864
aI8470
aI15439
aI15832
aI8422
aI8548
aI9168
aI4539
aI13606
aI1429
aI18188
aI14655
aI11437
aI13144
aI14789
aI7639
aI15741
aI12668
aI3564
aI9382
aI16905
aI15957
aI651
aI19804
aI3737
aI5219
aI19544
aI6025
aI2922
aI7426
aI17326
aI12006
aI2374
aI17264
aI13697
aI19791
aI2659
aI17996
aI18557
aI4789
aI8976
aI9792
aI3241
aI12833
aI10976
aI16436
aI13150
aI13627
aI13728
aI4870
aI13069
aI18577
aI313
aI18886
aI14325
aI17809
aI7038
aI1845
aI13470
aI5785
aI4609
aI18897
aI15627
aI11115
aI3300
aI1737
aI13548
aI2668
aI10513
aI19853
aI4130
aI3018
aI5350
aI1330
aI13534
aI10448
aI5064
aI5260
aI8389
aI17963
aI3942
aI7933
aI1120
aI11506
aI15617
aI7797
aI17317
aI11196
aI12145
aI19809
aI17236
aI1087
aI18870
aI9617
aI16490
aI1066
aI3134
aI956
aI11781
aI14576
aI348
aI4791
aI11713
aI8622
aI8868
aI16329
aI1794
aI6972
aI2006
aI15435
aI4818
aI10123
aI18707
aI17216
aI9842
aI10984
aI3442
aI14089
aI18140
aI18913
aI13951
aI8156
aI5599
aI7201
aI7139
aI1391
aI3975
aI2363
aI19202
aI19680
aI11564
aI13563
aI16443
aI11014
aI1632
aI18971
aI3454
aI12467
aI11946
aI17785
aI1572
aI16149
aI12506
aI10765
aI6592
aI11984
aI14958
aI18411
aI17959
aI11717
aI13279
aI14883
aI9555
aI10592
aI3237
aI376
aI4376
aI2519
aI3720
aI17160
aI14625
aI10349
aI961
aI8995
aI4466
aI14853
aI632
aI15469
aI9643
aI7460
aI10576
aI11485
aI12936
aI11209
aI14333
aI16779
aI11391
aI18747
aI8123
aI10806
aI11287
aI4915
aI9480
aI793
aI18699
aI18787
aI2117
aI12602
aI7589
aI12143
aI3805
aI9134
aI19084
aI10659
aI6186
aI18658
aI12345
aI2795
aI19566
aI3022
aI11830
aI15601
aI12586
aI10679
aI18955
aI2062
aI2081
aI7948
aI11383
aI5639
aI2161
aI11187
aI19742
aI137
aI11443
aI15395
aI5574
aI17572
aI15158
aI10348
aI11618
aI8711
aI590
aI8111
aI2857
aI3306
aI11363
aI2131
aI16473
aI15066
aI785
aI3919
aI5703
aI3239
aI6027
aI6902
aI14724
aI243
aI13196
aI13318
aI19446
aI6416
aI5651
aI899
aI18800
aI12794
aI10870
aI10523
aI13247
aI10739
aI11304
aI16560
aI64
aI11736
aI11793
aI3251
aI9275
aI14470
aI4343
aI12147
aI1156
aI18404
aI14563
aI3327
aI4939
aI14273
aI11798
aI322
aI16033
aI16405
aI11230
aI255
aI5215
aI5380
aI8708
aI9079
aI13844
aI918
aI16058
aI18153
aI1139
aI4392
aI16870
aI1070
aI11226
aI585
aI1495
aI11321
aI10714
aI17420
aI339
aI924
aI9209
aI1815
aI19104
aI14584
aI15653
aI7980
aI422
aI1470
aI14690
aI14794
aI653
aI16226
aI352
aI1475
aI15206
aI9594
aI10578
aI9106
aI9909
aI1580
aI11705
aI2278
aI11284
aI10256
aI7494
aI11642
aI4113
aI9246
aI1045
aI14718
aI10846
aI16037
aI15792
aI14389
aI15770
aI5849
aI12510
aI9392
aI5404
aI19370
aI4759
aI18297
aI17438
aI7325
aI474
aI14273
aI18897
aI4895
aI14904
aI4279
aI6485
aI16859
aI6941
aI3723
aI7303
aI15496
aI7868
aI11632
aI11301
aI7046
aI11160
aI49
aI15094
aI26
aI13206
aI1023
aI2876
aI7200
aI1695
aI16970
aI9744
aI9914
aI18720
aI8232
aI17666
aI7367
aI10835
aI7868
aI18413
aI4995
aI6306
aI784
aI19450
aI12982
aI2230
aI18692
aI16108
aI3789
aI16074
aI8513
aI6857
aI2554
aI9049
aI655
aI10255
aI18889
aI8149
aI9255
aI3580
aI354
aI11573
aI19441
aI18145
aI18929
aI5928
aI13526
aI3085
aI6427
aI8458
aI9370
aI15364
aI10051
aI2738
aI5761
aI5211
aI18485
aI6878
aI13981
aI13182
aI5066
aI11028
aI10632
aI5252
aI2213
aI19462
aI5431
aI7887
aI9277
aI8125
aI3612
aI2038
aI19005
aI548
aI10194
aI3396
aI4572
aI3621
aI3506
aI2154
aI7851
aI1636
aI17211
aI17428
aI3498
aI2432
aI11220
aI18321
aI10987
aI14386
aI2777
aI11898
aI3784
aI5916
aI8372
aI1208
aI15541
aI3520
aI6025
aI8062
aI9544
aI10993
aI14817
aI12895
aI14466
aI7352
aI9057
aI19725
aI13748
aI417
aI11666
aI15207
aI16621
aI658
aI10092
aI15117
aI14023
aI14383
aI894
aI19074
aI2634
aI7030
aI13257
aI1650
aI12035
aI7079
aI2441
aI13409
aI172
aI12954
aI6189
aI8917
aI3776
aI1055
aI19323
aI4426
aI16485
aI15337
aI2093
aI2375
aI17356
aI16320
aI2913
aI8107
aI5306
aI15626
aI8368
aI9447
aI7437
aI12788
aI2245
aI13836
aI17079
aI1048
aI3022
aI36
aI5119
aI9002
aI6700
aI11511
aI9377
aI14587
aI6671
aI15070
aI13297
aI11013
aI9984
aI14078
aI17768
aI6042
aI5100
aI14204
aI2872
aI8613
aI18406
aI563
aI17850
aI17263
aI11989
aI7505
aI19853
aI13420
aI1481
aI9081
aI15225
aI1632
aI19619
aI2481
aI8761
aI18803
aI12365
aI8453
aI1703
aI13269
aI930
aI7063
aI19424
aI2617
aI17710
aI10953
aI1298
aI13933
aI11610
aI8221
aI10624
aI1253
aI10901
aI3150
aI6946
aI4513
aI10105
aI3727
aI19105
aI12988
aI2437
aI12463
aI19894
aI2708
aI2777
aI5469
aI6724
aI16587
aI12966
aI11700
aI14535
aI5913
aI2832
aI6395
aI10812
aI6784
aI3892
aI16211
aI14728
aI11644
aI8183
aI6013
aI838
aI7333
aI13238
aI6775
aI10253
aI11282
aI14626
aI410
aI10107
aI15660
aI18522
aI14924
aI2405
aI6728
aI1128
aI4282
aI12605
aI13134
aI7089
aI16480
aI19920
aI17973
aI10014
aI535
aI18831
aI4515
aI15672
aI14047
aI19242
aI9034
aI6253
aI16243
aI12673
aI534
aI6877
aI18395
aI18733
aI16114
aI3246
aI12439
aI1033
aI14287
aI9136
aI13663
aI17547
aI16100
aI10926
aI8655
aI6481
aI3632
aI18285
aI4338
aI18224
aI5715
aI3641
aI9478
aI8455
aI17324
aI10604
aI11950
aI9764
aI15501
aI16087
aI966
aI6686
aI11276
aI12726
aI14323
aI19184
aI6290
aI12725
aI10353
aI8124
aI7399
aI175
aI18731
aI19124
aI14731
aI12739
aI1053
aI17704
aI9074
aI16714
aI14398
aI6919
aI18336
aI10922
aI12646
aI8196
aI17517
aI10900
aI17461
aI17543
aI1925
aI2417
aI13766
aI9874
aI14777
aI4521
aI17323
aI14782
aI19712
aI19575
aI3087
aI1327
aI11967
aI12678
aI8120
aI16237
aI5265
aI6631
aI18412
aI9990
aI15728
aI13602
aI4568
aI10592
aI8204
aI16224
aI6936
aI12874
aI14868
aI16190
aI19525
aI15053
aI16749
aI12035
aI16237
aI14051
aI7253
aI7538
aI6277
aI961
aI9626
aI18069
aI1221
aI14081
aI15075
aI10410
aI8973
aI18818
aI12441
aI4344
aI12856
aI14306
aI1228
aI5298
aI18761
aI11362
aI2766
aI11044
aI16647
aI10231
aI12022
aI18848
aI11937
aI458
aI5548
aI14210
aI17500
aI8203
aI12149
aI19680
aI9463
aI18975
aI1385
aI1030
aI17399
aI7970
aI1555
aI15364
aI16610
aI19834
aI1590
aI9484
aI6279
aI14773
aI19441
aI11090
aI384
aI13337
aI7307
aI17328
aI15046
aI18931
aI17453
aI1934
aI793
aI6420
aI8346
aI15736
aI12615
aI3632
aI8209
aI7793
aI19051
aI2527
aI7546
aI16292
aI2029
aI18428
aI836
aI14929
aI14241
aI6323
aI12616
aI4215
aI13450
aI16059
aI3329
aI16399
aI10751
aI14558
aI7032
aI8323
aI6778
aI1461
aI19766
aI15444
aI4615
aI11490
aI6835
aI19125
aI10043
aI15066
aI10570
aI2770
aI6552
aI16646
aI5857
aI1474
aI8592
aI11866
aI17519
aI2629
aI16021
aI11930
aI12284
aI519
aI11366
aI16292
aI18873
aI19087
aI2651
aI13013
aI2276
aI1870
aI7098
aI12383
aI10703
aI7271
aI15132
aI11057
aI3945
aI13260
aI9018
aI8750
aI9867
aI2907
aI3406
aI7932
aI13829
aI12106
aI8227
aI16029
aI12328
aI5013
aI10593
aI4010
aI431
aI11434
aI2607
aI18518
aI18730
aI14123
aI11114
aI2672
aI19877
aI5023
aI19457
aI6536
aI17415
aI10939
aI1674
aI1463
aI2348
aI1094
aI8041
aI13707
aI12998
aI5837
aI5712
aI11389
aI14059
aI13181
aI19713
aI17561
aI16438
aI4926
aI13752
aI2397
aI1614
aI18987
aI19862
aI9896
aI8466
aI19518
aI11504
aI8604
aI4508
aI1420
aI11053
aI10783
aI1157
aI7565
aI15957
aI17857
aI89
aI1505
aI12080
aI13606
aI12290
aI7839
aI13137
aI184
aI18621
aI12856
aI18593
aI8891
aI4208
aI2870
aI529
aI9372
aI18471
aI11914
aI19310
aI16483
aI13232
aI4082
aI16032
aI6079
aI11663
aI13979
aI3544
aI6640
aI1517
aI2273
aI18512
aI4206
aI15906
aI753
aI16338
aI2146
aI5659
aI19964
aI4707
aI12477
aI18747
aI1374
aI14875
aI1903
aI7556
aI13287
aI75
aI3135
aI18513
aI16716
aI13080
aI9582
aI819
aI8232
aI3105
aI4044
aI9525
aI18284
aI5048
aI11621
aI11334
aI4445
aI4650
aI17091
aI14308
aI16393
aI2957
aI4246
aI13340
aI12422
aI917
aI8967
aI14408
aI14035
aI12445
aI10541
aI358
aI15360
aI2233
aI9302
aI7739
aI5710
aI10844
aI7028
aI3319
aI6622
aI17777
aI2255
aI16287
aI6590
aI2957
aI16899
aI4699
aI5610
aI9882
aI14991
aI2965
aI1213
aI12734
aI18040
aI171
aI10919
aI16629
aI19268
aI12310
aI19751
aI13879
aI11634
aI17455
aI14029
aI5964
aI337
aI9255
aI19631
aI9386
aI7238
aI3385
aI5947
aI4886
aI9408
aI13805
aI17389
aI9403
aI16996
aI3836
aI12652
aI14648
aI2954
aI14679
aI6554
aI542
aI13490
aI3173
aI2815
aI14275
aI4118
aI15555
aI9763
aI2027
aI3160
aI9243
aI800
aI1260
aI7413
aI415
aI8693
aI14769
aI14285
aI5398
aI213
aI6773
aI13016
aI18089
aI19136
aI16855
aI16941
aI12295
aI3225
aI5077
aI13160
aI8108
aI3080
aI15632
aI14513
aI16036
aI9423
aI15703
aI14657
aI13371
aI6000
aI14063
aI1769
aI9914
aI2144
aI13087
aI9013
aI12706
aI19132
aI3910
aI13831
aI5755
aI2625
aI19535
aI14480
aI2078
aI12921
aI15598
aI8750
aI4900
aI12341
aI15008
aI13536
aI8077
aI8772
aI3284
aI15408
aI9588
aI3168
aI15811
aI12962
aI18512
aI4286
aI2300
aI1185
aI5125
aI11257
aI17273
aI17815
aI136
aI7758
aI6997
aI11210
aI15623
aI15515
aI5851
aI11771
aI16336
aI15356
aI6802
aI17384
aI13398
aI19288
aI7017
aI16906
aI12012
aI10323
aI11579
aI19276
aI16238
aI15316
aI15551
aI19420
aI11124
aI16455
aI1849
aI13504
aI5843
aI5694
aI9387
aI10075
aI19088
aI12120
aI13252
aI11714
aI552
aI19077
aI12893
aI12834
aI8199
aI12780
aI5001
aI11020
aI6653
aI11011
aI14613
aI19851
aI13824
aI17178
aI4403
aI7555
aI16887
aI16118
aI1188
aI17767
aI4808
aI6143
aI13704
aI8673
aI6273
aI2663
aI6476
aI11247
aI7674
aI19192
aI2628
aI5462
aI15440
aI361
aI1177
aI18215
aI3398
aI16684
aI12829
aI7522
aI6864
aI2891
aI8455
aI11201
aI11302
aI8344
aI15929
aI12798
aI17915
aI18713
aI15679
aI3931
aI12298
aI15557
aI15337
aI6994
aI15843
aI7017
aI6918
aI15518
aI3888
aI258
aI7262
aI7561
aI19712
aI12203
aI5111
aI12343
aI6835
aI14559
aI2747
aI5585
aI6970
aI2344
aI12100
aI13576
aI6932
aI18234
aI694
aI12894
aI9198
aI13865
aI5066
aI6998
aI14205
aI18380
aI9528
aI2969
aI19526
aI15882
aI1647
aI19131
aI18994
aI13289
aI4690
aI14219
aI17908
aI18583
aI11791
aI16015
aI14219
aI6875
aI10833
aI6789
aI5194
aI13224
aI11161
aI15322
aI8234
aI19013
aI6759
aI9694
aI16105
aI5854
aI10777
aI2194
aI4011
aI15878
aI1683
aI19700
aI17322
aI19538
aI867
aI2980
aI15353
aI3490
aI8214
aI10492
aI15721
aI5750
aI878
aI19614
aI7776
aI12858
aI4320
aI8270
aI2155
aI14840
aI2666
aI9323
aI2737
aI19254
aI131
aI9780
aI3098
aI11947
aI13676
aI6284
aI13830
aI17452
aI10436
aI6410
aI6116
aI2297
aI5621
aI19983
aI9330
aI2280
aI13958
aI13727
aI15628
aI18311
aI4425
aI18843
aI2392
aI3163
aI2070
aI4288
aI1967
aI435
aI19842
aI19521
aI15996
aI10790
aI8221
aI15599
aI11000
aI3408
aI15136
aI5196
aI17151
aI19481
aI7394
aI17782
aI15243
aI9279
aI3263
aI9816
aI11483
aI6149
aI2495
aI15853
aI5455
aI2547
aI4795
aI11101
aI18418
aI7750
aI8085
aI6443
aI4370
aI10971
aI11350
aI2186
aI17844
aI6411
aI9883
aI7167
aI16329
aI12796
aI7152
aI2320
aI6477
aI10032
aI4162
aI10185
aI11675
aI5692
aI11734
aI10398
aI5081
aI13047
aI17532
aI2388
aI4203
aI4526
aI2346
aI7976
aI8760
aI5012
aI10485
aI13963
aI6889
aI19145
aI7028
aI13840
aI12070
aI6646
aI10203
aI13871
aI5541
aI4424
aI16281
aI6114
aI8441
aI7531
aI16877
aI19513
aI6304
aI646
aI7221
aI2643
aI6802
aI9029
aI9728
aI18929
aI10688
aI19166
aI13168
aI10876
aI18883
aI13096
aI19260
aI188
aI18925
aI4358
aI15344
aI6712
aI2531
aI13037
aI11645
aI16117
aI14728
aI3805
aI11945
aI15601
aI11893
aI15781
aI4385
aI11790
aI6781
aI8663
aI17150
aI2133
aI1255
aI3034
aI9916
aI13938
aI2188
aI13790
aI7911
aI12075
aI3677
aI13983
aI13418
aI529
aI18963
aI1932
aI18663
aI18142
aI13151
aI4825
aI8677
aI6234
aI12242
aI18224
aI11347
aI18106
aI9484
aI16957
aI18095
aI5901
aI4395
aI13051
aI8117
aI13749
aI14281
aI16594
aI2140
aI8486
aI6244
aI4394
aI16121
aI16362
aI11564
aI10303
aI15060
aI18635
aI8867
aI9425
aI3951
aI15028
aI7190
aI19267
aI19586
aI13330
aI11992
aI5150
aI13195
aI12486
aI17346
aI4334
aI13553
aI7811
aI414
aI10559
aI11975
aI7477
aI14181
aI16502
aI922
aI3528
aI4069
aI1717
aI15093
aI5595
aI5065
aI12693
aI18492
aI10502
aI4046
aI3063
aI19429
aI13219
aI5097
aI3337
aI11397
aI2721
aI4558
aI11515
aI10491
aI12296
aI8165
aI12655
aI5682
aI11820
aI2440
aI5459
aI14477
aI18253
aI18208
aI2083
aI8445
aI13153
aI15121
aI3943
aI3928
aI9908
aI2035
aI6271
aI5445
aI3818
aI627
aI138
aI10724
aI18747
aI7615
aI12192
aI14395
aI1836
aI18536
aI14734
aI3794
aI8055
aI8136
aI10022
aI3866
aI2859
aI18298
aI91
aI13336
aI18943
aI18552
aI3371
aI12073
aI18916
aI231
aI2354
aI18795
aI51
aI19710
aI19226
aI19772
aI15182
aI13375
aI812
aI11358
aI5136
aI9729
aI3902
aI9722
aI2315
aI12528
aI10330
aI7780
aI14553
aI19532
aI16936
aI18450
aI15741
aI417
aI4475
aI6852
aI2656
aI13174
aI4454
aI3811
aI11826
aI16502
aI12304
aI12611
aI10146
aI14551
aI18828
aI15605
aI3271
aI3927
aI17828
aI18503
aI8077
aI8258
aI5693
aI18678
aI14009
aI15319
aI7569
aI15364
aI2805
aI19600
aI1164
aI7354
aI11537
aI19903
aI19008
aI13240
aI1787
aI5477
aI17041
aI13291
aI15573
aI10124
aI4575
aI10941
aI6085
aI8594
aI422
aI2688
aI5048
aI5345
aI16661
aI19647
aI5335
aI9523
aI8315
aI6129
aI10115
aI5299
aI17368
aI3570
aI3988
aI19001
aI2921
aI8061
aI13507
aI12316
aI9305
aI4786
aI19700
aI10821
aI6670
aI713
aI18026
aI5180
aI9882
aI6827
aI15960
aI3422
aI13613
aI3396
aI7521
aI3487
aI9590
aI16496
aI18577
aI18325
aI16952
aI7848
aI2668
aI11145
aI36
aI18318
aI2308
aI2389
aI2634
aI14160
aI2636
aI12611
aI19377
aI3259
aI11102
aI13479
aI12865
aI6049
aI15103
aI13175
aI5875
aI14781
aI12389
aI11428
aI6706
aI12886
aI5497
aI17307
aI17744
aI3012
aI295
aI1881
aI13502
aI4900
aI7908
aI1110
aI14523
aI13531
aI17116
aI6947
aI14496
aI5224
aI4899
aI12802
aI3542
aI10631
aI10407
aI969
aI11302
aI13741
aI11338
aI12331
aI12673
aI12588
aI7718
aI8691
aI2544
aI10435
aI221
aI13824
aI4490
aI16089
aI3917
aI6624
aI1900
aI6700
aI4344
aI8213
aI15720
aI16494
aI16902
aI14980
aI7589
aI16562
aI14938
aI1293
aI11340
aI14423
aI3193
aI11049
aI16491
aI52
aI1355
aI16306
aI2186
aI8735
aI12854
aI7959
aI11554
aI1095
aI19495
aI3802
aI16351
aI9286
aI13359
aI5788
aI551
aI18976
aI14593
aI13554
aI16888
aI750
aI11159
aI13685
aI6840
aI5117
aI18027
aI11480
aI3022
aI6074
aI15860
aI18941
aI5659
aI16133
aI1182
aI6444
aI8403
aI16370
aI11141
aI18535
aI7206
aI5172
aI4150
aI12667
aI17117
aI12346
aI14467
aI18474
aI10211
aI3149
aI3885
aI6085
aI19937
aI5593
aI6934
aI9620
aI4203
aI1151
aI14012
aI14812
aI4725
aI562
aI912
aI17429
aI7358
aI14185
aI2221
aI7971
aI4668
aI4872
aI14396
aI18871
aI17155
aI14830
aI9597
aI14466
aI15655
aI5800
aI152
aI17445
aI16849
aI3770
aI1629
aI1188
aI1421
aI16842
aI11000
aI1512
aI19640
aI5002
aI10364
aI929
aI19719
aI4534
aI15558
aI12780
aI13671
aI10489
aI2408
aI8035
aI11218
aI3712
aI19369
aI9383
aI7669
aI16331
aI14592
aI4450
aI9253
aI14035
aI8713
aI11425
aI17798
aI4897
aI6810
aI13230
aI12234
aI8614
aI7108
aI13722
aI1022
aI15313
aI1608
aI14759
aI6625
aI146
aI14753
aI13930
aI13046
aI14705
aI10263
aI10348
aI13041
aI1007
aI14749
aI13154
aI18083
aI17960
aI3007
aI12594
aI820
aI18788
aI12376
aI13559
aI4964
aI10154
aI11736
aI8134
aI12115
aI13006
aI10670
aI19890
aI7160
aI7911
aI16172
aI9912
aI4969
aI17925
aI19710
aI11760
aI16893
aI10075
aI1914
aI11885
aI1645
aI4987
aI4077
aI15202
aI2724
aI17184
aI19843
aI18488
aI12323
aI8437
aI15040
aI18893
aI12654
aI15104
aI13898
aI11116
aI19051
aI19987
aI12196
aI10414
aI7006
aI18636
aI19434
aI12997
aI12925
aI4837
aI14178
aI5441
aI17120
aI16513
aI12277
aI1804
aI18003
aI7249
aI9381
aI10749
aI19084
aI12241
aI6339
aI2336
aI17912
aI18348
aI274
aI1350
aI4019
aI15216
aI500
aI12102
aI1234
aI14906
aI12869
aI15194
aI8535
aI14804
aI7686
aI3948
aI11258
aI5663
aI6376
aI6035
aI1433
aI16480
aI6785
aI18434
aI3709
aI19946
aI11453
aI2412
aI14737
aI11859
aI10098
aI9638
aI3489
aI15528
aI9971
aI2218
aI531
aI12972
aI3935
aI5962
aI2487
aI748
aI3922
aI223
aI7107
aI13123
aI2655
aI7337
aI4012
aI9812
aI12854
aI8336
aI7273
aI343
aI1623
aI404
aI14410
aI16652
aI19794
aI11999
aI3612
aI16019
aI9044
aI13463
aI5213
aI1418
aI494
aI14662
aI10539
aI6969
aI8751
aI18790
aI8193
aI400
aI17203
aI7502
aI13107
aI373
aI14442
aI10625
aI14221
aI8559
aI3007
aI17025
aI4792
aI2230
aI19847
aI9452
aI19368
aI13873
aI3200
aI6171
aI19465
aI16106
aI5383
aI18345
aI19112
aI7486
aI10127
aI6892
aI2073
aI4908
aI4089
aI15166
aI13445
aI4633
aI18334
aI1766
aI983
aI9030
aI4685
aI17520
aI16900
aI12319
aI8348
aI18049
aI10670
aI18907
aI1520
aI17180
aI4823
aI10371
aI1033
aI8988
aI3110
aI16254
aI9346
aI15756
aI14561
aI12602
aI14215
aI16968
aI13259
aI18580
aI7634
aI5690
aI13828
aI13098
aI7031
aI2009
aI14304
aI7466
aI3839
aI13834
aI8247
aI2432
aI6747
aI15202
aI4105
aI19944
aI16713
aI19721
aI19398
aI16144
aI358
aI1471
aI15265
aI3358
aI8280
aI13558
aI15788
aI17517
aI3223
aI8474
aI9575
aI3160
aI14302
aI16
aI12006
aI25
aI18203
aI13861
aI4949
aI7344
aI17979
aI3399
aI5526
aI9740
aI8339
aI4583
aI848
aI15767
aI5851
aI15975
aI8856
aI18484
aI16086
aI10526
aI9357
aI2049
aI9719
aI3548
aI8084
aI2035
aI2514
aI7885
aI3148
aI8244
aI14730
aI11359
aI19449
aI18326
aI8124
aI12035
aI16133
aI7094
aI14802
aI6785
aI3547
aI7047
aI17552
aI12689
aI5856
aI14296
aI14127
aI6003
aI3516
aI1722
aI10022
aI13901
aI3163
aI2730
aI8715
aI10818
aI8336
aI19575
aI14269
aI5505
aI13483
aI1868
aI5839
aI14255
aI10282
aI19549
aI14479
aI18269
aI12010
aI18254
aI15021
aI11299
aI12670
aI13617
aI8016
aI3966
aI15282
aI3206
aI4314
aI5694
aI5717
aI15779
aI13725
aI9959
aI3730
aI13238
aI2981
aI17721
aI2686
aI11642
aI19388
aI19450
aI13069
aI1002
aI445
aI18153
aI9062
aI6994
aI11045
aI5497
aI9805
aI6836
aI6261
aI2033
aI11237
aI6821
aI19347
aI11338
aI1737
aI1559
aI6429
aI11668
aI14204
aI16405
aI5505
aI12874
aI16546
aI14402
aI6039
aI19629
aI14667
aI19998
aI1061
aI9473
aI13498
aI17459
aI19836
aI17937
aI9938
aI10907
aI3875
aI4666
aI17284
aI13445
aI119
aI13969
aI17046
aI9968
aI16264
aI11298
aI10379
aI12633
aI3683
aI11881
aI5325
aI323
aI5656
aI7616
aI19299
aI5407
aI3858
aI4410
aI17706
aI940
aI17221
aI18575
aI1248
aI7333
aI3032
aI11400
aI3720
aI14217
aI10540
aI7819
aI2817
aI17255
aI18525
aI3991
aI7182
aI5143
aI10367
aI1569
aI11782
aI18148
aI3692
aI9385
aI7793
aI13187
aI19372
aI19642
aI9348
aI3579
aI11029
aI5322
aI5142
aI17221
aI6274
aI17540
aI8937
aI1039
aI17131
aI1081
aI2652
aI10990
aI3968
aI864
aI8576
aI4459
aI8710
aI357
aI4609
aI10810
aI19649
aI3660
aI8358
aI8368
aI1907
aI134
aI17950
aI9025
aI8578
aI9733
aI13423
aI12499
aI277
aI19390
aI19880
aI7428
aI14314
aI5935
aI17768
aI10316
aI5217
aI5692
aI19377
aI4100
aI5326
aI1839
aI16679
aI16606
aI11629
aI19062
aI17029
aI18456
aI11632
aI5446
aI9640
aI465
aI3800
aI4077
aI18718
aI8477
aI4897
aI9596
aI16253
aI15768
aI6402
aI6692
aI2907
aI7638
aI1405
aI10507
aI1514
aI9864
aI13049
aI145
aI19183
aI13376
aI8932
aI9576
aI10260
aI894
aI5376
aI1710
aI14068
aI12607
aI4419
aI13313
aI18227
aI12335
aI2938
aI12234
aI7384
aI7987
aI10592
aI13574
aI4122
aI16520
aI14066
aI15736
aI2211
aI2142
aI3521
aI15580
aI8634
aI4998
aI16231
aI7559
aI10779
aI16643
aI5905
aI5978
aI12500
aI4915
aI14825
aI19239
aI11719
aI9505
aI7799
aI521
aI13357
aI4084
aI14122
aI17553
aI16898
aI7686
aI904
aI2698
aI19341
aI530
aI7053
aI4732
aI5105
aI18298
aI1137
aI18550
aI17250
aI8046
aI786
aI9722
aI11475
aI19263
aI10357
aI14884
aI12728
aI4848
aI18784
aI17293
aI1280
aI5003
aI15106
aI12804
aI342
aI8721
aI8509
aI14797
aI978
aI7690
aI4197
aI16543
aI7506
aI18626
aI17399
aI1085
aI17840
aI12415
aI8543
aI18198
aI6122
aI4644
aI5885
aI912
aI9387
aI11604
aI5748
aI6872
aI7540
aI15519
aI2100
aI19641
aI8263
aI14107
aI3770
aI13229
aI4789
aI14136
aI441
aI3924
aI11398
aI11947
aI17198
aI10256
aI6417
aI9227
aI11387
aI9123
aI439
aI16994
aI12574
aI8945
aI9356
aI15621
aI5114
aI15659
aI11753
aI14246
aI6919
aI4247
aI12535
aI19546
aI12563
aI7263
aI19305
aI19106
aI10189
aI15531
aI7092
aI12843
aI8810
aI18202
aI9273
aI3642
aI5602
aI3136
aI17021
aI9708
aI5760
aI19237
aI19320
aI4075
aI10406
aI5659
aI9494
aI6615
aI9619
aI10500
aI18101
aI19569
aI3023
aI13762
aI1748
aI16490
aI17235
aI9995
aI16620
aI4550
aI9614
aI495
aI19096
aI5837
aI7145
aI3725
aI14333
aI3223
aI13315
aI9054
aI831
aI8463
aI8411
aI12197
aI7121
aI12822
aI19731
aI12972
aI9537
aI15593
aI7806
aI8834
aI8918
aI3912
aI1141
aI14921
aI11569
aI1515
aI4947
aI18070
aI18207
aI18653
aI5891
aI7929
aI9899
aI13241
aI1756
aI15665
aI11006
aI4993
aI16142
aI14494
aI14007
aI12178
aI16383
aI4161
aI11971
aI3692
aI15886
aI757
aI18079
aI6504
aI3003
aI10820
aI3537
aI15070
aI19995
aI9663
aI8889
aI15321
aI4632
aI6311
aI670
aI13664
aI5791
aI13230
aI4381
aI4251
aI13458
aI5678
aI19995
aI18347
aI12740
aI6415
aI5581
aI2409
aI15837
aI5204
aI11953
aI19857
aI1740
aI8796
aI16610
aI10250
aI16201
aI957
aI17206
aI18448
aI1836
aI3732
aI5023
aI10136
aI8260
aI3940
aI19808
aI18285
aI13963
aI6107
aI7568
aI14093
aI9373
aI19313
aI2252
aI5858
aI5114
aI18563
aI3055
aI12997
aI18622
aI9091
aI4760
aI17766
aI10753
aI1080
aI12543
aI3031
aI10087
aI12698
aI8503
aI3358
aI10243
aI3668
aI1860
aI2269
aI4175
aI17520
aI8835
aI4035
aI12008
aI4522
aI5507
aI2942
aI2164
aI15581
aI3006
aI5142
aI9868
aI1709
aI14573
aI6822
aI4850
aI16462
aI592
aI300
aI15915
aI5575
aI15530
aI3937
aI14664
aI19088
aI12380
aI8812
aI14490
aI7061
aI6760
aI13103
aI12212
aI3481
aI4964
aI12718
aI2939
aI11005
aI6083
aI5184
aI17999
aI1330
aI7462
aI4683
aI5077
aI16948
aI18006
aI19980
aI10390
aI5103
aI13549
aI19824
aI4860
aI6142
aI14714
aI10821
aI13170
aI4641
aI17131
aI19447
aI3364
aI12048
aI18232
aI8406
aI13996
aI16131
aI19382
aI6997
aI5156
aI8041
aI10872
aI10726
aI14469
aI437
aI19036
aI3101
aI3168
aI18768
aI14732
aI19381
aI11379
aI19811
aI9172
aI12319
aI4713
aI10600
aI14655
aI1472
aI10825
aI1200
aI6444
aI2815
aI2311
aI4896
aI180
aI12425
aI18448
aI16253
aI5912
aI18335
aI13552
aI10434
aI812
aI14290
aI15668
aI5301
aI10774
aI12897
aI2703
aI9196
aI6774
aI1821
aI12030
aI11857
aI13174
aI13222
aI4140
aI4264
aI17580
aI8013
aI2079
aI3934
aI12075
aI8998
aI19239
aI16175
aI15749
aI14876
aI7730
aI14753
aI10553
aI12525
aI7460
aI9211
aI8884
aI12278
aI8078
aI2678
aI13962
aI11817
aI955
aI5317
aI7563
aI18153
aI17425
aI1176
aI15497
aI10111
aI6878
aI10905
aI15730
aI5185
aI18487
aI4470
aI17139
aI12676
aI19866
aI10532
aI13103
aI5653
aI1505
aI3777
aI3345
aI16022
aI8341
aI17113
aI7832
aI2747
aI10136
aI12764
aI10840
aI11719
aI6630
aI2525
aI17489
aI7479
aI18944
aI19164
aI19853
aI8992
aI18527
aI4442
aI12053
aI11054
aI2965
aI13287
aI17094
aI2885
aI4702
aI14359
aI16365
aI18005
aI265
aI13384
aI6032
aI15674
aI16861
aI2060
aI17397
aI6810
aI13970
aI2341
aI4733
aI13356
aI18918
aI5966
aI18234
aI13520
aI8974
aI19405
aI13532
aI11343
aI10622
aI14120
aI6195
aI16323
aI16555
aI6694
aI8287
aI10614
aI4808
aI19268
aI8909
aI16101
aI7744
aI351
aI16315
aI5729
aI249
aI4264
aI18809
aI1305
aI19762
aI52
aI19227
aI18463
aI15727
aI7542
aI10298
aI14462
aI18032
aI900
aI3584
aI5827
aI6108
aI708
aI12451
aI12404
aI10578
aI19216
aI15406
aI4036
aI10257
aI17537
aI12614
aI17322
aI3931
aI6584
aI14779
aI3664
aI1495
aI3116
aI2944
aI9942
aI15539
aI10320
aI18316
aI12043
aI6162
aI5548
aI14906
aI18260
aI6066
aI11694
aI14441
aI6430
aI9889
aI92
aI4972
aI18386
aI617
aI3035
aI12204
aI1067
aI11544
aI11577
aI18136
aI13331
aI6426
aI6852
aI7079
aI10744
aI19298
aI6686
aI9176
aI1094
aI384
aI846
aI8239
aI7686
aI5368
aI14321
aI12789
aI19001
aI9998
aI9488
aI16897
aI2730
aI16979
aI17404
aI19467
aI18962
aI14137
aI1481
aI7136
aI7382
aI4718
aI13082
aI18330
aI14221
aI17120
aI5115
aI837
aI7494
aI7668
aI11598
aI9068
aI10962
aI1923
aI12691
aI5196
aI12410
aI16524
aI18166
aI4493
aI19798
aI11021
aI5189
aI9688
aI9100
aI15301
aI814
aI14919
aI19369
aI12587
aI19393
aI11997
aI10337
aI6141
aI18771
aI18503
aI19043
aI10665
aI17422
aI15292
aI17423
aI17550
aI10305
aI16999
aI14531
aI4966
aI6648
aI11715
aI8968
aI4221
aI19738
aI15822
aI17181
aI19868
aI10001
aI16539
aI11495
aI6335
aI17379
aI5843
aI16378
aI5027
aI13871
aI15643
aI6746
aI8770
aI6480
aI15439
aI18745
aI15303
aI15046
aI2771
aI17940
aI14092
aI6007
aI16405
aI1165
aI14850
aI19777
aI17927
aI9564
aI19587
aI6602
aI12542
aI18319
aI1161
aI19459
aI9471
aI17065
aI9227
aI6064
aI12657
aI17311
aI7714
aI2297
aI1286
aI17970
aI15996
aI4360
aI12624
aI16929
aI12264
aI15118
aI14672
aI15308
aI14337
aI8483
aI596
aI94
aI4317
aI10228
aI15441
aI18134
aI15683
aI15086
aI11440
aI1904
aI459
aI14054
aI17451
aI6577
aI1912
aI2890
aI8885
aI4107
aI18181
aI824
aI11622
aI9403
aI15403
aI16449
aI816
aI17475
aI19833
aI17768
aI41
aI6969
aI2541
aI11752
aI197
aI3058
aI17102
aI13336
aI18242
aI7749
aI15008
aI8870
aI3795
aI2745
aI3482
aI19767
aI264
aI8522
aI15156
aI17487
aI12454
aI1418
aI1152
aI15088
aI11246
aI13996
aI12362
aI6222
aI17916
aI14852
aI13116
aI3281
aI15612
aI10877
aI13752
aI10061
aI18924
aI5562
aI809
aI942
aI8278
aI12084
aI10738
aI9345
aI11167
aI15661
aI7937
aI11096
aI2238
aI11979
aI9321
aI7574
aI7629
aI8406
aI3017
aI18088
aI1347
aI16222
aI14016
aI11587
aI8448
aI12279
aI14967
aI5921
aI4289
aI2217
aI15395
aI5261
aI1876
aI14737
aI13803
aI13438
aI17398
aI12886
aI6366
aI5528
aI3032
aI12699
aI2267
aI5000
aI4978
aI12031
aI16978
aI18901
aI13952
aI17657
aI6404
aI6572
aI18583
aI10466
aI14164
aI155
aI778
aI14554
aI19288
aI14737
aI16915
aI9545
aI4809
aI7267
aI7435
aI8663
aI12141
aI11609
aI14039
aI12538
aI19445
aI4687
aI13729
aI8138
aI4962
aI11648
aI5917
aI9228
aI853
aI2883
aI3880
aI9460
aI748
aI11501
aI15733
aI19331
aI10093
aI12723
aI12363
aI2431
aI6370
aI6329
aI11082
aI7425
aI6327
aI15793
aI2878
aI1969
aI13648
aI4920
aI2465
aI1385
aI15346
aI15556
aI14094
aI3628
aI9220
aI11819
aI15063
aI16281
aI17213
aI15710
aI19151
aI791
aI10864
aI10745
aI8849
aI7881
aI16307
aI15428
aI13288
aI12203
aI11842
aI2204
aI6566
aI19865
aI14187
aI13545
aI17491
aI9869
aI4971
aI9103
aI12060
aI9783
aI12501
aI15913
aI14032
aI2413
aI722
aI3052
aI16393
aI15313
aI14563
aI6920
aI3308
aI11324
aI12158
aI2336
aI19707
aI1
aI4962
aI513
aI18783
aI14679
aI17701
aI8443
aI8634
aI3089
aI10609
aI15573
aI8553
aI11925
aI6036
aI1552
aI13232
aI14266
aI13763
aI6499
aI10669
aI383
aI9491
aI16887
aI6145
aI16034
aI14459
aI8690
aI6468
aI14799
aI15543
aI2002
aI3164
aI12125
aI4798
aI16078
aI11346
aI139
aI11304
aI15447
aI6614
aI9770
aI10976
aI17684
aI2573
aI13074
aI17033
aI13456
aI13695
aI2913
aI13533
aI5804
aI19258
aI16797
aI1341
aI11574
aI11123
aI18853
aI4844
aI8371
aI12882
aI13601
aI5152
aI9151
aI939
aI967
aI5169
aI17733
aI1297
aI7784
aI18583
aI12344
aI19076
aI13724
aI8968
aI13997
aI1900
aI6283
aI15044
aI11077
aI14520
aI13001
aI12816
aI3039
aI14156
aI7044
aI10894
aI9533
aI18569
aI10633
aI18481
aI5018
aI18431
aI14048
aI4002
aI8019
aI15793
aI16850
aI7732
aI2927
aI6367
aI10442
aI15346
aI8538
aI17226
aI18866
aI8028
aI8510
aI11845
aI10423
aI10347
aI8778
aI15433
aI12072
aI8643
aI13427
aI1910
aI13416
aI14407
aI19987
aI16687
aI15614
aI9466
aI15066
aI9182
aI17105
aI4644
aI19310
aI1382
aI18597
aI17279
aI6579
aI6352
aI12174
aI12744
aI15382
aI17565
aI14685
aI13911
aI16747
aI13931
aI8116
aI19065
aI15019
aI13349
aI14615
aI18178
aI9172
aI19073
aI16287
aI18168
aI3863
aI8489
aI10846
aI1089
aI14708
aI14774
aI13148
aI4466
aI17788
aI5672
aI19564
aI3649
aI18757
aI3812
aI1298
aI10304
aI10155
aI15523
aI4768
aI14917
aI16282
aI13176
aI17341
aI9116
aI3489
aI14295
aI6504
aI2132
aI6641
aI14017
aI12252
aI19273
aI93
aI5231
aI18525
aI13572
aI11526
aI2999
aI4305
aI19452
aI19539
aI6374
aI10054
aI15312
aI1622
aI965
aI5924
aI6285
aI9864
aI12510
aI215
aI13972
aI6035
aI16865
aI18452
aI16546
aI4999
aI17941
aI2163
aI15097
aI8312
aI12833
aI9166
aI17880
aI9178
aI16568
aI8170
aI3752
aI10945
aI7983
aI17550
aI11613
aI6396
aI9341
aI14607
aI6881
aI9629
aI15147
aI7216
aI10103
aI13175
aI9845
aI19529
aI6434
aI15938
aI6545
aI4889
aI19298
aI9715
aI1130
aI8479
aI19683
aI16424
aI13528
aI5842
aI19459
aI12321
aI15533
aI11171
aI19764
aI10025
aI4285
aI7875
aI8541
aI18324
aI12289
aI6396
aI12949
aI15328
aI13371
aI10331
aI13234
aI12599
aI8308
aI6949
aI17200
aI5486
aI2274
aI6303
aI17118
aI5720
aI7404
aI10173
aI19761
aI7362
aI4621
aI2050
aI13865
aI17838
aI9094
aI1040
aI10129
aI15225
aI19369
aI5062
aI2828
aI12877
aI10786
aI7511
aI6156
aI11684
aI14589
aI3373
aI4804
aI2988
aI10756
aI1930
aI8356
aI27
aI562
aI16697
aI15750
aI17460
aI2602
aI12634
aI6623
aI6184
aI13835
aI13901
aI5857
aI14797
aI9435
aI13417
aI4487
aI18389
aI19502
aI8683
aI827
aI16173
aI2138
aI14343
aI18177
aI11779
aI165
aI16279
aI8815
aI12864
aI6919
aI11837
aI8145
aI9916
aI18453
aI3617
aI3736
aI14927
aI8968
aI13708
aI16722
aI12036
aI3203
aI5826
aI11419
aI14691
aI79
aI12651
aI14960
aI18863
aI6217
aI19634
aI5322
aI17429
aI9630
aI2921
aI7375
aI4311
aI6461
aI9668
aI3887
aI19792
aI14203
aI13757
aI8737
aI5341
aI1033
aI19947
aI8116
aI114
aI8889
aI16686
aI7889
aI17295
aI8125
aI12731
aI2544
aI9312
aI3502
aI13388
aI18906
aI6117
aI16759
aI17531
aI15963
aI12988
aI15947
aI12924
aI1408
aI5514
aI5662
aI7391
aI6912
aI4602
aI11774
aI16464
aI616
aI7729
aI19766
aI5491
aI12950
aI406
aI2515
aI4774
aI1615
aI7876
aI17466
aI8315
aI10929
aI5891
aI13839
aI19771
aI17152
aI5621
aI13956
aI5214
aI11789
aI17490
aI5730
aI954
aI16332
aI8128
aI11398
aI11384
aI16653
aI2293
aI1351
aI529
aI15839
aI8599
aI18642
aI5051
aI4576
aI6473
aI7896
aI19083
aI8408
aI6924
aI6862
aI14270
aI18100
aI15287
aI11509
aI9203
aI16183
aI387
aI14365
aI17543
aI2103
aI13655
aI9575
aI11131
aI16781
aI4285
aI3245
aI15407
aI2394
aI4786
aI15330
aI2806
aI9838
aI13923
aI13879
aI9679
aI16519
aI12610
aI19486
aI3463
aI7591
aI17627
aI7661
aI14923
aI18241
aI6580
aI5824
aI2151
aI15493
aI8949
aI6160
aI4501
aI19726
aI19441
aI11002
aI4431
aI15560
aI13637
aI882
aI994
aI890
aI154
aI18618
aI12379
aI15776
aI17507
aI9561
aI14443
aI3898
aI1283
aI12138
aI3634
aI2100
aI2214
aI4060
aI18796
aI19931
aI13280
aI16721
aI2633
aI9622
aI7497
aI11969
aI14732
aI9201
aI2561
aI19571
aI15446
aI15543
aI19439
aI13177
aI17337
aI11135
aI12665
aI17803
aI15462
aI4443
aI15245
aI13626
aI5643
aI2151
aI15047
aI18742
aI15989
aI16596
aI1595
aI17796
aI10417
aI19873
aI15418
aI16552
aI774
aI19631
aI9788
aI16086
aI17436
aI6339
aI19283
aI10352
aI19858
aI7154
aI4418
aI10798
aI12719
aI8239
aI19818
aI4717
aI5332
aI18527
aI6469
aI13755
aI16068
aI8018
aI19928
aI5225
aI11942
aI15079
aI15640
aI10541
aI8211
aI6114
aI1972
aI9678
aI13533
aI11070
aI14121
aI14350
aI17042
aI9182
aI16671
aI14910
aI4207
aI17668
aI19969
aI724
aI13947
aI18022
aI17258
aI4190
aI12779
aI5441
aI8024
aI14592
aI13820
aI11128
aI9652
aI16844
aI6248
aI1844
aI18538
aI6610
aI6686
aI7775
aI15457
aI4872
aI15046
aI2338
aI6431
aI5359
aI10693
aI12524
aI12541
aI6928
aI17464
aI387
aI329
aI14606
aI4813
aI8754
aI3718
aI6944
aI18401
aI15816
aI2213
aI19069
aI4217
aI18454
aI8591
aI6587
aI13255
aI12898
aI18233
aI10516
aI2734
aI14983
aI19776
aI228
aI11660
aI11259
aI9513
aI4141
aI4051
aI4136
aI11406
aI5451
aI8664
aI11159
aI461
aI6262
aI12481
aI13205
aI9312
aI17986
aI12188
aI3943
aI3812
aI232
aI7080
aI11917
aI3941
aI4528
aI3566
aI14050
aI19843
aI17343
aI10742
aI3880
aI18085
aI14917
aI17214
aI12793
aI5354
aI9615
aI3990
aI1460
aI11417
aI6040
aI18023
aI2162
aI12649
aI1192
aI3467
aI19975
aI9014
aI18763
aI6714
aI3377
aI10865
aI5420
aI11485
aI14764
aI3600
aI3306
aI5037
aI9034
aI18914
aI13023
aI1096
aI15332
aI4032
aI17098
aI657
aI4958
aI14029
aI12337
aI14086
aI1480
aI2071
aI2153
aI15880
aI11235
aI18156
aI7981
aI16111
aI8232
aI13071
aI2413
aI15856
aI19219
aI5944
aI5175
aI6894
aI14657
aI11811
aI9473
aI4081
aI18165
aI3258
aI2948
aI17552
aI18438
aI7130
aI13013
aI3837
aI18394
aI967
aI9224
aI14963
aI17
aI11624
aI5805
aI14117
aI15640
aI6918
aI16261
aI14793
aI14845
aI19602
aI15449
aI15206
aI12055
aI3018
aI19941
aI10291
aI11965
aI203
aI16163
aI12133
aI4167
aI11745
aI12102
aI14595
aI11547
aI5485
aI3426
aI5272
aI5195
aI6489
aI2165
aI5432
aI12887
aI2651
aI749
aI8817
aI10684
aI17538
aI11715
aI9455
aI17359
aI19591
aI7779
aI14873
aI10661
aI19653
aI7008
aI16760
aI4407
aI11823
aI11866
aI13813
aI15527
aI16823
aI1253
aI11742
aI3593
aI8949
aI18799
aI16892
aI19395
aI2115
aI18485
aI3783
aI11171
aI17133
aI12384
aI5247
aI12778
aI5706
aI11945
aI2741
aI18145
aI8065
aI9757
aI12802
aI3854
aI14122
aI8988
aI17257
aI4392
aI445
aI15344
aI16007
aI5824
aI9001
aI11251
aI6010
aI18210
aI859
aI4682
aI2830
aI18433
aI14330
aI1656
aI1581
aI8023
aI16998
aI19725
aI3287
aI3412
aI14812
aI11538
aI19966
aI3398
aI11700
aI6550
aI13197
aI7823
aI4767
aI18830
aI3410
aI2855
aI7164
aI16634
aI17777
aI3517
aI684
aI7606
aI18197
aI1715
aI219
aI9073
aI2586
aI10596
aI13927
aI10937
aI17359
aI6868
aI9601
aI13154
aI797
aI9571
aI9041
aI12413
aI11757
aI2285
aI1032
aI18685
aI13535
aI6103
aI8483
aI3583
aI16045
aI4040
aI18470
aI8377
aI12468
aI19611
aI1374
aI7565
aI14511
aI8217
aI15659
aI3919
aI9588
aI8934
aI12517
aI6191
aI2811
aI2569
aI17644
aI1880
aI12280
aI11614
aI7759
aI14097
aI13398
aI8705
aI9778
aI11827
aI13596
aI10593
aI2085
aI5816
aI3066
aI8115
aI15657
aI8622
aI14940
aI9231
aI1448
aI11623
aI9842
aI9329
aI12567
aI9198
aI5748
aI17798
aI8172
aI1909
aI9319
aI2975
aI8748
aI16224
aI1693
aI5386
aI16140
aI7924
aI14003
aI7550
aI6926
aI15685
aI16638
aI14119
aI7762
aI18935
aI15028
aI8444
aI19388
aI478
aI16540
aI19851
aI11742
aI802
aI5867
aI2395
aI18460
aI20
aI482
aI11294
aI10861
aI11788
aI15994
aI527
aI6382
aI17128
aI1305
aI11780
aI6587
aI380
aI12780
aI7533
aI17934
aI12495
aI16749
aI4532
aI19409
aI14138
aI16562
aI13851
aI16695
aI6488
aI6309
aI3801
aI11363
aI16881
aI19898
aI973
aI10762
aI79
aI1011
aI2957
aI6682
aI10093
aI6869
aI13822
aI19199
aI16104
aI7725
aI16536
aI8082
aI14017
aI11030
aI9103
aI5846
aI11340
aI15735
aI1739
aI11949
aI2800
aI13320
aI12126
aI2843
aI8315
aI1366
aI5824
aI12373
aI11504
aI17230
aI2689
aI14559
aI12262
aI4743
aI9740
aI323
aI13327
aI16280
aI2071
aI19604
aI10456
aI19321
aI3220
aI2917
aI19614
aI3623
aI7516
aI4322
aI11592
aI19114
aI5724
aI6537
aI2121
aI14943
aI10880
aI18727
aI13886
aI18386
aI4501
aI11231
aI5214
aI16695
aI9333
aI9879
aI17891
aI1840
aI5025
aI2196
aI4858
aI9401
aI16980
aI4307
aI571
aI4638
aI17497
aI12126
aI9963
aI14734
aI5860
aI2534
aI4787
aI16052
aI5217
aI1783
aI12403
aI11042
aI18179
aI2988
aI14926
aI8572
aI6805
aI870
aI16218
aI11494
aI8479
aI15841
aI14518
aI18513
aI19130
aI12557
aI6693
aI6526
aI18644
aI4632
aI2594
aI4640
aI16045
aI999
aI9033
aI17745
aI14150
aI15506
aI11906
aI2383
aI220
aI11453
aI13148
aI11898
aI16256
aI679
aI4525
aI16948
aI17844
aI15375
aI6063
aI1393
aI12434
aI17136
aI12264
aI113
aI6820
aI3148
aI2725
aI13425
aI1501
aI5083
aI16092
aI16339
aI7685
aI703
aI3892
aI5487
aI428
aI12410
aI19375
aI3678
aI16232
aI5761
aI8003
aI11377
aI19676
aI15901
aI15156
aI2770
aI14279
aI16446
aI8272
aI16692
aI1530
aI10537
aI5442
aI6906
aI10379
aI538
aI18899
aI15146
aI10520
aI18975
aI10461
aI11493
aI9577
aI10600
aI3750
aI12862
aI19451
aI10147
aI717
aI18664
aI700
aI10264
aI13537
aI5537
aI14961
aI19053
aI17974
aI16090
aI10598
aI18549
aI187
aI4546
aI3105
aI17775
aI19990
aI7466
aI19062
aI1855
aI15393
aI7495
aI12863
aI9881
aI6881
aI6886
aI16801
aI16211
aI10060
aI3221
aI3918
aI17380
aI19521
aI2031
aI11432
aI15336
aI10413
aI15962
aI8149
aI286
aI19221
aI13140
aI18749
aI15200
aI2039
aI2949
aI3007
aI19307
aI18246
aI12165
aI639
aI8286
aI11616
aI5804
aI822
aI14034
aI10442
aI12226
aI3434
aI13630
aI11140
aI14966
aI8135
aI5340
aI10929
aI16820
aI9969
aI17748
aI8566
aI17246
aI6463
aI16286
aI12855
aI5484
aI12658
aI8477
aI3563
aI1645
aI16805
aI19559
aI14311
aI5818
aI12649
aI17832
aI11523
aI10421
aI14526
aI2252
aI10255
aI13591
aI5200
aI8498
aI8092
aI824
aI8543
aI107
aI10384
aI4276
aI1803
aI17618
aI4415
aI1283
aI18889
aI6874
aI2333
aI5524
aI3800
aI10118
aI9317
aI10065
aI11909
aI5886
aI3137
aI820
aI17491
aI7317
aI3642
aI10629
aI8244
aI11881
aI9487
aI13265
aI513
aI13049
aI10777
aI2280
aI12238
aI16227
aI10033
aI8964
aI18590
aI8454
aI15195
aI6654
aI18426
aI7531
aI17310
aI491
aI5858
aI2062
aI11775
aI18763
aI8960
aI9448
aI3313
aI2000
aI3788
aI10859
aI10218
aI1449
aI7678
aI1047
aI3465
aI18190
aI16071
aI17554
aI17647
aI3670
aI6870
aI14188
aI17206
aI10197
aI7620
aI13528
aI5978
aI2393
aI11147
aI14101
aI10358
aI19355
aI17575
aI6920
aI16316
aI7782
aI3074
aI14368
aI19466
aI3751
aI4960
aI17696
aI16717
aI7375
aI4592
aI16952
aI3174
aI5985
aI15909
aI10784
aI16474
aI13191
aI12175
aI10096
aI15200
aI9311
aI4222
aI6912
aI8006
aI13865
aI1379
aI8241
aI1356
aI7961
aI1826
aI2298
aI10690
aI12121
aI15157
aI15836
aI17571
aI11136
aI19114
aI7475
aI2597
aI16806
aI5894
aI7776
aI5803
aI19158
aI15530
aI18851
aI15073
aI4282
aI12009
aI8797
aI17940
aI3444
aI15690
aI5056
aI7821
aI10018
aI12698
aI3082
aI4462
aI18899
aI18310
aI11858
aI7789
aI12940
aI16820
aI3712
aI16911
aI5468
aI11640
aI19211
aI15723
aI19501
aI19326
aI3543
aI6485
aI8941
aI7370
aI12002
aI19239
aI8550
aI5536
aI12771
aI15509
aI3104
aI11792
aI14098
aI12684
aI9838
aI16723
aI3619
aI756
aI119
aI15641
aI2893
aI18762
aI17491
aI16484
aI19474
aI14094
aI9733
aI14529
aI16970
aI8911
aI17962
aI17248
aI11779
aI18439
aI10270
aI1631
aI15634
aI14250
aI1530
aI19381
aI11442
aI6099
aI8358
aI8425
aI13189
aI11340
aI4720
aI5082
aI12814
aI3703
aI17746
aI10122
aI5266
aI15603
aI724
aI7155
aI11359
aI3125
aI3097
aI1137
aI1157
aI17694
aI12191
aI12316
aI15018
aI11657
aI11488
aI6702
aI4914
aI18374
aI847
aI16705
aI11593
aI13604
aI9873
aI10607
aI15031
aI5659
aI2150
aI13463
aI9961
aI12934
aI17316
aI10503
aI3571
aI18936
aI10529
aI7879
aI17984
aI1064
aI18195
aI1234
aI5680
aI17505
aI7571
aI15719
aI14630
aI17013
aI1228
aI741
aI10248
aI10693
aI8189
aI13326
aI5669
aI4173
aI6981
aI125
aI13698
aI13840
aI18539
aI4407
aI7045
aI1281
aI14154
aI11376
aI12489
aI17394
aI11620
aI93
aI4673
aI12653
aI11013
aI1774
aI10115
aI1345
aI7301
aI4269
aI12969
aI16145
aI12858
aI5972
aI3543
aI15981
aI18265
aI7357
aI8987
aI1555
aI11087
aI4696
aI19501
aI108
aI6658
aI7460
aI2869
aI2596
aI11845
aI10458
aI10856
aI15435
aI2059
aI17875
aI6396
aI19387
aI17069
aI16968
aI15000
aI16780
aI14660
aI13311
aI10604
aI8393
aI8918
aI1042
aI4000
aI5441
aI6715
aI14443
aI16500
aI7214
aI4037
aI19972
aI2931
aI13300
aI6100
aI9045
aI8198
aI10553
aI14143
aI9852
aI15165
aI1845
aI10111
aI10581
aI2243
aI7416
aI3204
aI13724
aI1225
aI17357
aI9778
aI12364
aI8744
aI3023
aI16385
aI7273
aI8846
aI14192
aI17660
aI11003
aI15809
aI14422
aI215
aI9807
aI19892
aI2352
aI1716
aI209
aI2732
aI15343
aI5248
aI3359
aI9593
aI14883
aI1425
aI1664
aI10056
aI2960
aI5149
aI1592
aI18644
aI681
aI19111
aI16125
aI1124
aI17146
aI3062
aI12591
aI17651
aI762
aI18902
aI2192
aI19731
aI5916
aI7000
aI11119
aI9649
aI4159
aI13966
aI6083
aI8556
aI14726
aI3093
aI14761
aI17173
aI2444
aI8906
aI13885
aI7513
aI11920
aI7230
aI3057
aI13900
aI2821
aI8603
aI5436
aI689
aI15253
aI19213
aI160
aI2790
aI4166
aI10740
aI11966
aI9352
aI9063
aI11682
aI15262
aI10753
aI6735
aI17784
aI15963
aI8928
aI16902
aI1238
aI18428
aI16594
aI16523
aI5296
aI19120
aI15110
aI2998
aI1421
aI16586
aI14527
aI4891
aI1073
aI9558
aI3417
aI11989
aI9475
aI4964
aI1541
aI19252
aI13074
aI6846
aI9243
aI6153
aI6158
aI3836
aI7746
aI1417
aI14585
aI18086
aI14803
aI18648
aI346
aI2961
aI8993
aI10220
aI1008
aI5450
aI2987
aI18060
aI19295
aI10339
aI8184
aI3139
aI714
aI5333
aI13536
aI11380
aI4315
aI7248
aI8607
aI5749
aI4410
aI14998
aI16586
aI16365
aI3920
aI3213
aI18517
aI17424
aI18676
aI7184
aI12954
aI18993
aI7276
aI3341
aI7344
aI9301
aI6336
aI12971
aI11310
aI19814
aI3590
aI2192
aI7313
aI5976
aI12524
aI16916
aI18198
aI223
aI5342
aI8606
aI2951
aI15417
aI13046
aI17090
aI14857
aI7897
aI19256
aI16722
aI9565
aI1288
aI6189
aI1813
aI12623
aI6589
aI2615
aI15764
aI9046
aI9103
aI1012
aI17504
aI14094
aI16067
aI15673
aI1748
aI16248
aI3427
aI5100
aI9485
aI3055
aI17277
aI10621
aI15479
aI13084
aI2868
aI17940
aI9066
aI5853
aI15930
aI1258
aI14985
aI14026
aI3610
aI2631
aI11747
aI7285
aI5445
aI642
aI8982
aI13775
aI6224
aI8481
aI3608
aI4831
aI15985
aI17833
aI1368
aI13734
aI2231
aI14451
aI16019
aI3997
aI19685
aI16074
aI2348
aI10941
aI13058
aI2564
aI12383
aI16445
aI15011
aI10778
aI9992
aI4181
aI12150
aI10677
aI9641
aI345
aI2403
aI704
aI1509
aI808
aI17492
aI10990
aI7121
aI3272
aI13145
aI12823
aI1653
aI17417
aI16421
aI3017
aI6021
aI13286
aI12900
aI15199
aI10797
aI9000
aI14003
aI11790
aI2781
aI1540
aI16481
aI9705
aI12580
aI2856
aI17156
aI3801
aI6069
aI9247
aI10658
aI10963
aI5480
aI2655
aI4800
aI3709
aI9152
aI9689
aI18000
aI2336
aI11492
aI5595
aI12496
aI7080
aI13882
aI12359
aI5869
aI14997
aI5407
aI5220
aI16924
aI6623
aI8459
aI2582
aI14980
aI3390
aI18716
aI14932
aI17541
aI18230
aI19894
aI8708
aI15057
aI4498
aI4455
aI4695
aI16732
aI4705
aI15712
aI2231
aI12852
aI16101
aI9197
aI66
aI11714
aI15086
aI787
aI9939
aI4133
aI200
aI14842
aI13143
aI11940
aI10982
aI9646
aI7948
aI19467
aI973
aI13719
aI12345
aI8040
aI2905
aI15528
aI19925
aI18336
aI18102
aI1364
aI6145
aI11706
aI6665
aI19271
aI3308
aI2110
aI10418
aI4785
aI7554
aI2082
aI1008
aI3812
aI9474
aI11546
aI17082
aI17937
aI11971
aI16388
aI178
aI5772
aI10623
aI6026
aI9679
aI10952
aI18412
aI16457
aI11346
aI10649
aI1959
aI16995
aI8002
aI11859
aI11296
aI10604
aI4303
aI3421
aI4019
aI18600
aI1773
aI13385
aI3254
aI243
aI19839
aI8304
aI3143
aI4169
aI18043
aI15263
aI12956
aI19818
aI18847
aI2353
aI11478
aI3756
aI14670
aI2949
aI432
aI1745
aI10530
aI2154
aI2043
aI16017
aI3923
aI11485
aI8511
aI14716
aI11374
aI17615
aI8412
aI4906
aI17970
aI1616
aI5643
aI12479
aI2331
aI16490
aI6611
aI15097
aI17233
aI775
aI8405
aI17371
aI19103
aI5374
aI4878
aI5516
aI19735
aI118
aI195
aI14054
aI18141
aI1863
aI17156
aI14562
aI6366
aI15924
aI14806
aI19354
aI6197
aI12479
aI11481
aI2668
aI6777
aI13777
aI14248
aI5379
aI2400
aI8155
aI15892
aI12343
aI13262
aI11533
aI10988
aI5886
aI8490
aI12952
aI16434
aI8890
aI5192
aI17132
aI9129
aI5067
aI18498
aI13260
aI15701
aI991
aI3083
aI2107
aI7764
aI19544
aI9454
aI11998
aI10832
aI5610
aI9491
aI13023
aI7808
aI12843
aI1162
aI3720
aI14504
aI4164
aI10822
aI17693
aI2267
aI10610
aI9161
aI16020
aI4280
aI360
aI1754
aI7762
aI491
aI11891
aI17497
aI13541
aI17447
aI4737
aI15397
aI11828
aI7440
aI1360
aI15739
aI11879
aI10440
aI172
aI606
aI13768
aI16153
aI1995
aI10965
aI7271
aI9791
aI16131
aI18803
aI16567
aI14109
aI18321
aI14113
aI7384
aI14133
aI15144
aI12881
aI7598
aI14874
aI5000
aI9060
aI11657
aI4433
aI3011
aI8178
aI1949
aI5764
aI377
aI16495
aI16904
aI4354
aI5540
aI1412
aI9479
aI1209
aI3981
aI6992
aI960
aI7303
aI19625
aI1074
aI8584
aI13909
aI14862
aI12620
aI17655
aI7575
aI335
aI11470
aI16000
aI17153
aI18434
aI14562
aI7816
aI5529
aI8014
aI2922
aI4869
aI18455
aI13545
aI1096
aI7305
aI3644
aI2273
aI17063
aI2536
aI2712
aI10518
aI3426
aI2493
aI8327
aI9914
aI4684
aI10941
aI17904
aI7559
aI6160
aI8720
aI18257
aI1470
aI1014
aI2120
aI11133
aI15470
aI6362
aI4466
aI11394
aI2214
aI16956
aI8714
aI5775
aI12467
aI1243
aI2406
aI6879
aI9744
aI12168
aI12967
aI18614
aI14396
aI302
aI9283
aI17526
aI499
aI4811
aI8049
aI3970
aI5494
aI9389
aI17861
aI13550
aI14280
aI12473
aI11142
aI2140
aI16673
aI2947
aI1795
aI2294
aI3493
aI845
aI10550
aI5800
aI1730
aI13397
aI9503
aI16906
aI18587
aI1587
aI1536
aI593
aI2324
aI3515
aI14185
aI9126
aI12970
aI12010
aI673
aI16919
aI11397
aI10466
aI16662
aI15941
aI17954
aI17284
aI4900
aI14504
aI17452
aI17553
aI15659
aI14844
aI16424
aI16971
aI14139
aI1939
aI16963
aI14055
aI8465
aI9976
aI9874
aI14736
aI2000
aI10812
aI9442
aI2374
aI15040
aI11419
aI3487
aI9624
aI19108
aI8513
aI11563
aI2361
aI18506
aI12950
aI7074
aI5406
aI4261
aI971
aI7283
aI19352
aI7694
aI15388
aI6343
aI2972
aI15420
aI14194
aI8847
aI9684
aI17494
aI19096
aI8667
aI6333
aI10283
aI14862
aI12444
aI14071
aI10503
aI15664
aI16709
aI10009
aI15459
aI10275
aI4059
aI10102
aI16221
aI7378
aI633
aI16500
aI18807
aI1132
aI4671
aI12535
aI18253
aI13543
aI4621
aI9768
aI1120
aI18025
aI3648
aI17911
aI8741
aI16644
aI16398
aI2681
aI17672
aI2288
aI15076
aI10031
aI485
aI2642
aI12273
aI19021
aI5234
aI18888
aI11750
aI14830
aI1351
aI17434
aI1334
aI19751
aI7133
aI18191
aI17715
aI3280
aI16013
aI16839
aI9922
aI15903
aI5753
aI15452
aI17058
aI19671
aI15162
aI11630
aI7625
aI9030
aI4270
aI1829
aI14237
aI4854
aI2636
aI11362
aI14942
aI19008
aI4918
aI3167
aI15255
aI18284
aI13031
aI19059
aI16377
aI15686
aI16396
aI2067
aI12354
aI17297
aI8051
aI18019
aI1268
aI8797
aI17496
aI9484
aI7063
aI17105
aI11269
aI6144
aI10619
aI18155
aI12980
aI15180
aI11997
aI8912
aI1719
aI1167
aI13875
aI4059
aI19003
aI9125
aI13049
aI10108
aI13558
aI5988
aI13889
aI11152
aI16445
aI18382
aI6841
aI6719
aI1388
aI7057
aI18514
aI10774
aI9292
aI5697
aI11478
aI12784
aI12974
aI9774
aI14875
aI19667
aI325
aI736
aI19428
aI16695
aI13991
aI14485
aI9418
aI15457
aI16703
aI1752
aI10142
aI16918
aI4
aI12355
aI8359
aI17482
aI16900
aI1799
aI17390
aI16188
aI15700
aI15215
aI19906
aI594
aI17612
aI11907
aI19639
aI16458
aI13639
aI19883
aI19765
aI13204
aI12313
aI4315
aI14834
aI6206
aI7574
aI2175
aI3869
aI5650
aI16653
aI617
aI18708
aI6910
aI14992
aI11326
aI4271
aI2067
aI4536
aI3900
aI3208
aI16849
aI8879
aI17021
aI8770
aI19583
aI8323
aI11950
aI5720
aI17422
aI13036
aI3830
aI18286
aI3500
aI9717
aI5909
aI11908
aI12002
aI10531
aI1743
aI6058
aI11014
aI17705
aI12331
aI11798
aI914
aI10026
aI6647
aI7697
aI14655
aI7215
aI11203
aI7092
aI13027
aI8838
aI10838
aI288
aI12202
aI1697
aI15700
aI14192
aI19655
aI1609
aI3386
aI5892
aI15284
aI10864
aI7018
aI15084
aI1788
aI18519
aI3129
aI17017
aI6011
aI9866
aI18989
aI16979
aI15872
aI10200
aI18803
aI7894
aI2459
aI11337
aI3727
aI17406
aI1334
aI15637
aI5187
aI8755
aI12061
aI745
aI6862
aI18885
aI8864
aI6192
aI8383
aI15579
aI19329
aI13908
aI9315
aI4176
aI17763
aI11868
aI12245
aI13104
aI9099
aI10664
aI7340
aI232
aI462
aI14615
aI19383
aI14401
aI17006
aI17640
aI19177
aI10969
aI2432
aI5065
aI17861
aI12294
aI6434
aI19794
aI1358
aI14971
aI6676
aI7262
aI5069
aI6052
aI3094
aI9509
aI5593
aI16986
aI19889
aI364
aI13390
aI10486
aI12004
aI8444
aI19727
aI16075
aI17535
aI6361
aI4924
aI7063
aI1154
aI12342
aI15537
aI571
aI15480
aI8676
aI8840
aI19587
aI5337
aI6795
aI5761
aI10651
aI2555
aI14022
aI9095
aI14343
aI17729
aI15390
aI14038
aI5806
aI11220
aI771
aI9208
aI13270
aI8134
aI10167
aI590
aI12880
aI3280
aI3095
aI18924
aI9875
aI19258
aI10638
aI18681
aI9328
aI14372
aI10953
aI18640
aI18004
aI3852
aI5638
aI19479
aI16904
aI13997
aI16724
aI7400
aI15429
aI19188
aI12031
aI18564
aI13741
aI11043
aI12280
aI13408
aI5806
aI6936
aI14094
aI14393
aI13479
aI12166
aI18068
aI17658
aI2004
aI3005
aI15519
aI1548
aI17558
aI6757
aI17827
aI14492
aI1898
aI8898
aI8732
aI14894
aI4126
aI18560
aI19807
aI19034
aI17128
aI9086
aI4390
aI6753
aI12870
aI5534
aI1805
aI19299
aI13551
aI18883
aI4925
aI11887
aI7321
aI3570
aI3642
aI8662
aI13857
aI16485
aI3446
aI2950
aI3652
aI10689
aI7675
aI1261
aI5492
aI832
aI2323
aI9794
aI3277
aI16768
aI7347
aI5044
aI17301
aI14252
aI8042
aI6117
aI3128
aI19708
aI19535
aI8601
aI19223
aI12759
aI5141
aI9946
aI14341
aI4798
aI14094
aI15608
aI1998
aI8192
aI16697
aI8841
aI7158
aI7469
aI2570
aI12946
aI16460
aI125
aI3645
aI17358
aI18564
aI13015
aI16678
aI16753
aI3893
aI1100
aI949
aI16469
aI12202
aI13923
aI12725
aI6653
aI10124
aI15381
aI13156
aI2125
aI1365
aI12082
aI3253
aI15807
aI14362
aI11746
aI1189
aI4305
aI8630
aI13675
aI7901
aI14979
aI11531
aI5444
aI11895
aI18599
aI9963
aI14016
aI12950
aI17792
aI12692
aI2402
aI7424
aI9091
aI5882
aI6686
aI7754
aI393
aI19746
aI19351
aI2261
aI10609
aI11007
aI4716
aI16009
aI3185
aI11250
aI17429
aI16599
aI13602
aI5337
aI16831
aI10177
aI14401
aI10737
aI17753
aI6566
aI12593
aI9188
aI4551
aI18140
aI12586
aI4089
aI5171
aI5453
aI13653
aI1807
aI4546
aI1768
aI585
aI3453
aI18085
aI12472
aI12358
aI12566
aI709
aI6869
aI15347
aI9374
aI19428
aI15069
aI14126
aI11164
aI14208
aI6220
aI14340
aI19805
aI14773
aI15940
aI15248
aI1582
aI14830
aI17770
aI9416
aI17426
aI14973
aI10100
aI1435
aI2271
aI13695
aI14411
aI5514
aI17667
aI15483
aI18422
aI8751
aI10368
aI5105
aI5451
aI2461
aI12823
aI9894
aI5303
aI15612
aI19901
aI7069
aI1966
aI9107
aI13994
aI968
aI7410
aI3014
aI1418
aI12384
aI8840
aI11834
aI19036
aI15901
aI339
aI15724
aI1971
aI18437
aI2858
aI9435
aI14299
aI10053
aI11792
aI17131
aI13968
aI18599
aI4493
aI7866
aI17483
aI10759
aI12892
aI4635
aI2198
aI18058
aI5549
aI18337
aI14007
aI4818
aI15215
aI14864
aI14066
aI19793
aI19424
aI16673
aI16175
aI19556
aI1247
aI6390
aI16919
aI17321
aI16373
aI11492
aI11486
aI19553
aI7247
aI7043
aI18100
aI12887
aI7932
aI10871
aI4802
aI7164
aI17387
aI11482
aI14787
aI18048
aI4158
aI15180
aI10926
aI18526
aI18680
aI19952
aI675
aI2580
aI139
aI3222
aI1327
aI8522
aI7788
aI7094
aI9236
aI16533
aI16666
aI2570
aI2806
aI3854
aI15814
aI8256
aI12852
aI6705
aI13196
aI2448
aI1665
aI18226
aI10343
aI17275
aI9570
aI14849
aI4041
aI9210
aI4649
aI5490
aI5838
aI8956
aI8357
aI5952
aI9205
aI3329
aI17341
aI5252
aI18595
aI1014
aI17061
aI6737
aI17671
aI15179
aI764
aI3045
aI4693
aI2546
aI6970
aI1845
aI16100
aI15550
aI9947
aI1961
aI12622
aI16885
aI10098
aI2997
aI15465
aI13064
aI2649
aI15290
aI8148
aI13990
aI16177
aI5040
aI18134
aI5832
aI867
aI1282
aI9740
aI7445
aI7129
aI3238
aI12710
aI7024
aI3270
aI16212
aI7995
aI19617
aI5881
aI5361
aI2149
aI11649
aI15036
aI14361
aI2664
aI5770
aI909
aI19176
aI12777
aI12495
aI3384
aI10717
aI16568
aI12697
aI19033
aI18401
aI11480
aI17119
aI9219
aI12339
aI11080
aI9610
aI15344
aI10855
aI15285
aI875
aI11514
aI18061
aI18364
aI19262
aI12430
aI10462
aI13059
aI18594
aI2131
aI17487
aI3891
aI3504
aI7959
aI10912
aI19276
aI11063
aI14661
aI9666
aI9481
aI9355
aI17876
aI18837
aI17796
aI18222
aI15150
aI14436
aI10165
aI13140
aI7130
aI3155
aI19575
aI19299
aI12587
aI5659
aI19923
aI439
aI11284
aI18456
aI147
aI8762
aI12177
aI16207
aI8826
aI16305
aI15978
aI19479
aI5076
aI13391
aI11972
aI18028
aI2588
aI13840
aI14935
aI14265
aI7947
aI18605
aI12386
aI15097
aI7276
aI11917
aI3471
aI16312
aI14533
aI1629
aI14305
aI1430
aI17754
aI14184
aI7001
aI1374
aI7038
aI14080
aI18389
aI8110
aI2632
aI4894
aI3278
aI19185
aI2552
aI18331
aI12504
aI2142
aI19135
aI2846
aI3618
aI8785
aI19701
aI16976
aI7385
aI8365
aI13308
aI4229
aI18994
aI6268
aI18183
aI8156
aI6322
aI1101
aI12123
aI16609
aI3012
aI19688
aI10004
aI13163
aI18598
aI10481
aI4187
aI4184
aI7804
aI5414
aI12730
aI10494
aI10760
aI7362
aI1212
aI4501
aI18331
aI10123
aI16972
aI12543
aI6074
aI3610
aI417
aI15181
aI9970
aI10021
aI16136
aI3231
aI1412
aI4822
aI6237
aI14856
aI17621
aI675
aI19077
aI15466
aI16469
aI19403
aI7946
aI9639
aI18379
aI14253
aI9971
aI8122
aI1857
aI9961
aI2334
aI12917
aI18791
aI5659
aI7218
aI17681
aI5017
aI9152
aI10496
aI11851
aI15485
aI17666
aI12299
aI9742
aI14769
aI18489
aI7178
aI6836
aI5971
aI7167
aI8624
aI13650
aI1231
aI13471
aI9522
aI7689
aI16233
aI3117
aI13392
aI2018
aI8245
aI9801
aI17730
aI5424
aI3163
aI2065
aI19126
aI14673
aI11006
aI15317
aI16862
aI2601
aI15246
aI16280
aI18320
aI15173
aI11831
aI16004
aI5853
aI680
aI19588
aI7514
aI15687
aI12002
aI8385
aI3688
aI2553
aI14078
aI17489
aI19595
aI1668
aI19753
aI2441
aI15152
aI133
aI1421
aI2729
aI5041
aI19354
aI16614
aI16372
aI7910
aI4750
aI10070
aI16142
aI3728
aI15108
aI3005
aI12821
aI3221
aI19097
aI18253
aI13207
aI15714
aI265
aI8561
aI15893
aI12500
aI13478
aI7408
aI16662
aI2098
aI15318
aI677
aI14643
aI12233
aI3766
aI10092
aI12449
aI1214
aI16828
aI19359
aI1129
aI10101
aI6914
aI14583
aI5755
aI18660
aI13968
aI381
aI6724
aI1831
aI2062
aI15089
aI4401
aI6380
aI6300
aI8850
aI7217
aI10539
aI13172
aI11773
aI19687
aI15194
aI19451
aI12149
aI14933
aI5071
aI17536
aI6944
aI7748
aI13841
aI9406
aI896
aI10124
aI9704
aI6207
aI14026
aI1805
aI8441
aI13785
aI11629
aI3803
aI1725
aI18503
aI13030
aI15723
aI12554
aI8629
aI10315
aI13672
aI16396
aI5707
aI18971
aI8896
aI9062
aI5325
aI17692
aI15688
aI9958
aI8184
aI13471
aI16150
aI19786
aI16466
aI16205
aI19785
aI350
aI5335
aI3885
aI8773
aI9837
aI18061
aI7007
aI3906
aI4003
aI16874
aI11878
aI12618
aI8873
aI6234
aI4562
aI13086
aI1254
aI6497
aI8867
aI456
aI7008
aI2100
aI14959
aI19123
aI19049
aI419
aI12048
aI12559
aI14381
aI8369
aI3988
aI4908
aI13998
aI10586
aI2839
aI18277
aI4369
aI16251
aI643
aI8505
aI12761
aI18686
aI298
aI1842
aI16338
aI16893
aI19634
aI7025
aI11449
aI6812
aI1749
aI1616
aI2106
aI11018
aI11794
aI5378
aI18870
aI8195
aI2749
aI17137
aI4222
aI12930
aI11360
aI18314
aI1579
aI8977
aI7920
aI8396
aI16319
aI19634
aI8517
aI2787
aI7160
aI13551
aI1891
aI19134
aI9932
aI1899
aI15434
aI10944
aI14332
aI1163
aI9511
aI18918
aI7669
aI14851
aI7639
aI9020
aI5823
aI9998
aI17039
aI17469
aI11141
aI12854
aI10755
aI17618
aI9252
aI4801
aI2523
aI13374
aI7587
aI3409
aI15696
aI536
aI15663
aI19041
aI83
aI7585
aI8089
aI18757
aI12410
aI13923
aI13373
aI7077
aI16437
aI15972
aI6117
aI7251
aI6441
aI7251
aI8475
aI18125
aI15799
aI13771
aI5320
aI4027
aI16813
aI4786
aI6687
aI1064
aI6305
aI10113
aI19914
aI15640
aI10991
aI3970
aI16839
aI4131
aI13557
aI7226
aI13822
aI16590
aI9854
aI6744
aI19053
aI14308
aI5184
aI14846
aI9854
aI6842
aI19238
aI15208
aI3677
aI11549
aI10849
aI10484
aI10394
aI13403
aI16123
aI1641
aI19691
aI137
aI6838
aI11334
aI8288
aI983
aI8648
aI2131
aI15325
aI6604
aI13101
aI8499
aI13891
aI6604
aI13496
aI10920
aI15907
aI4587
aI1852
aI16161
aI17659
aI13508
aI17659
aI17080
aI6302
aI9645
aI15982
aI17406
aI11240
aI5031
aI19140
aI14490
aI17188
aI12129
aI846
aI11328
aI10611
aI2521
aI17508
aI9152
aI12343
aI3897
aI13070
aI12458
aI14171
aI19082
aI9281
aI10947
aI3102
aI16092
aI18351
aI2888
aI19584
aI2430
aI5304
aI3651
aI19970
aI11322
aI8604
aI5393
aI10824
aI13734
aI6005
aI17017
aI18754
aI6834
aI9217
aI12580
aI2576
aI7864
aI4248
aI19091
aI5245
aI13262
aI3079
aI1027
aI16418
aI16188
aI18945
aI11116
aI1331
aI14758
aI3155
aI17096
aI18743
aI2434
aI6455
aI13314
aI1174
aI6973
aI19763
aI17809
aI15154
aI15022
aI1266
aI8737
aI1177
aI4312
aI3287
aI8312
aI4437
aI14357
aI19204
aI10631
aI12387
aI4136
aI16273
aI11335
aI13513
aI3252
aI7535
aI15865
aI4410
aI19325
aI281
aI8102
aI6028
aI9141
aI4277
aI13890
aI9986
aI9233
aI12045
aI10295
aI10754
aI4213
aI7246
aI17404
aI13322
aI2671
aI2789
aI17234
aI13083
aI7423
aI5611
aI390
aI12336
aI5354
aI903
aI7818
aI268
aI15916
aI7509
aI439
aI13217
aI19894
aI17562
aI7261
aI9496
aI9462
aI3040
aI7536
aI18556
aI11985
aI18904
aI8973
aI2356
aI10708
aI1508
aI7940
aI19866
aI5062
aI13723
aI6460
aI669
aI19367
aI10258
aI16399
aI7639
aI5393
aI16999
aI3256
aI11701
aI13411
aI2202
aI2492
aI8054
aI15427
aI9679
aI4756
aI2023
aI19031
aI15935
aI11147
aI1458
aI18148
aI811
aI5554
aI8666
aI8478
aI5110
aI6443
aI12995
aI3548
aI6757
aI12243
aI2048
aI4470
aI11234
aI19646
aI7077
aI8231
aI10368
aI3315
aI1396
aI5471
aI5003
aI15680
aI15038
aI4834
aI837
aI5983
aI5019
aI17356
aI12834
aI9901
aI9529
aI6633
aI1332
aI16307
aI4662
aI1392
aI12563
aI15688
aI5083
aI19603
aI4492
aI9607
aI13829
aI17416
aI15139
aI1534
aI19837
aI11786
aI15781
aI16345
aI5979
aI7729
aI4374
aI16580
aI19454
aI5684
aI12136
aI18731
aI16627
aI7194
aI17535
aI3753
aI4019
aI18850
aI7946
aI1155
aI8301
aI8734
aI18356
aI2611
aI4020
aI15598
aI4374
aI17702
aI4934
aI17058
aI10154
aI2286
aI9430
aI10453
aI8136
aI7650
aI11859
aI19545
aI1692
aI7724
aI2977
aI13309
aI5910
aI7140
aI1072
aI13090
aI2317
aI17650
aI180
aI3569
aI6048
aI12060
aI14740
aI16869
aI3832
aI18997
aI9921
aI2633
aI16424
aI1757
aI4312
aI18387
aI2668
aI16132
aI7784
aI12186
aI6596
aI12612
aI18641
aI19650
aI1373
aI19364
aI15384
aI13687
aI19854
aI2713
aI3043
aI1178
aI6125
aI6159
aI635
aI9867
aI12615
aI1068
aI5700
aI4877
aI11897
aI2717
aI10593
aI9901
aI14978
aI15819
aI13913
aI17745
aI11884
aI731
aI18685
aI5671
aI19601
aI4602
aI906
aI11984
aI8332
aI18099
aI14785
aI19074
aI8277
aI17977
aI700
aI19516
aI16021
aI7378
aI17628
aI9416
aI9816
aI9683
aI18650
aI17307
aI16907
aI8229
aI3953
aI15212
aI6377
aI12226
aI16218
aI16653
aI7661
aI10948
aI8158
aI776
aI18493
aI14758
aI10342
aI5842
aI11701
aI16866
aI11153
aI1058
aI1364
aI5512
aI4356
aI3786
aI10323
aI15109
aI7182
aI10369
aI7400
aI3836
aI10270
aI7469
aI3393
aI5517
aI9025
aI19498
aI17477
aI13124
aI11761
aI9679
aI19312
aI1484
aI12240
aI2895
aI1894
aI4852
aI1431
aI10214
aI10232
aI19163
aI9826
aI11972
aI592
aI4891
aI7147
aI4516
aI11417
aI2356
aI2045
aI19880
aI7324
aI9141
aI15554
aI19997
aI14439
aI12242
aI9492
aI3271
aI16229
aI12414
aI17449
aI17093
aI8295
aI3171
aI17270
aI17348
aI844
aI14943
aI16088
aI5614
aI1105
aI9383
aI15876
aI8017
aI6104
aI11004
aI5735
aI6470
aI1718
aI15467
aI12070
aI15341
aI3753
aI19641
aI4682
aI15885
aI12196
aI7877
aI6686
aI19927
aI5483
aI8972
aI9332
aI17762
aI6051
aI7662
aI9289
aI15586
aI2941
aI17699
aI18677
aI3232
aI4561
aI2280
aI19723
aI2283
aI3048
aI9269
aI11248
aI16801
aI10445
aI11894
aI11691
aI17980
aI17182
aI17856
aI3841
aI18455
aI16449
aI4966
aI3756
aI911
aI13720
aI10368
aI2940
aI722
aI18427
aI2038
aI2060
aI724
aI92
aI15659
aI16335
aI17736
aI13304
aI3014
aI8274
aI1529
aI11063
aI14589
aI12720
aI11096
aI11254
aI5224
aI14137
aI4379
aI3739
aI15924
aI17725
aI6369
aI7769
aI2574
aI1142
aI4781
aI17853
aI14754
aI9407
aI4267
aI970
aI4719
aI1089
aI6591
aI12775
aI19787
aI17171
aI18800
aI13866
aI1577
aI5062
aI7314
aI12602
aI17667
aI10072
aI15257
aI19473
aI1205
aI9562
aI7325
aI14721
aI5550
aI3712
aI19022
aI9761
aI12133
aI15929
aI8642
aI14924
aI16694
aI6862
aI19894
aI3064
aI9610
aI19916
aI8730
aI18968
aI6374
aI11060
aI12210
aI7256
aI16736
aI2866
aI1488
aI13159
aI6873
aI18304
aI16534
aI12721
aI5130
aI18661
aI19237
aI12090
aI13964
aI1253
aI311
aI90
aI9914
aI4484
aI3027
aI2226
aI3226
aI11174
aI14131
aI1950
aI4808
aI13556
aI16250
aI10551
aI19962
aI19262
aI10011
aI12302
aI1729
aI1344
aI5362
aI12637
aI5344
aI15214
aI6767
aI6358
aI5842
aI19753
aI2578
aI2244
aI17193
aI14551
aI9014
aI13816
aI8843
aI10172
aI13187
aI2157
aI1288
aI11792
aI5240
aI14448
aI18492
aI19679
aI10929
aI11235
aI19167
aI8896
aI13663
aI4311
aI7974
aI18941
aI17799
aI12642
aI12678
aI10937
aI12459
aI12233
aI2639
aI13267
aI416
aI16894
aI1469
aI12979
aI12241
aI7902
aI15939
aI9633
aI6630
aI14634
aI8795
aI10961
aI11451
aI359
aI11
aI1912
aI12847
aI1860
aI17840
aI11578
aI12981
aI14351
aI17615
aI1915
aI18518
aI8329
aI4340
aI17914
aI117
aI14323
aI17597
aI8538
aI5741
aI18598
aI15340
aI15816
aI5478
aI16256
aI11262
aI1566
aI10137
aI10464
aI11162
aI10754
aI16802
aI5729
aI2718
aI427
aI11807
aI12407
aI2380
aI7274
aI5887
aI14635
aI3252
aI730
aI15656
aI2184
aI7094
aI18266
aI2929
aI19268
aI17341
aI5292
aI8297
aI6950
aI2532
aI1459
aI6132
aI19918
aI12730
aI19334
aI7113
aI11783
aI1662
aI16709
aI10181
aI17797
aI17196
aI17795
aI5555
aI766
aI6556
aI2484
aI5119
aI10414
aI4906
aI4227
aI1761
aI10598
aI12806
aI11199
aI19053
aI10324
aI264
aI11683
aI2697
aI13488
aI256
aI1563
aI19100
aI2460
aI14668
aI6668
aI13698
aI210
aI18346
aI15765
aI8175
aI14415
aI13238
aI8814
aI5370
aI11098
aI2877
aI18698
aI10393
aI13962
aI14922
aI2349
aI11470
aI14230
aI19573
aI5729
aI7759
aI18058
aI3969
aI19713
aI10692
aI8670
aI7414
aI18498
aI3447
aI10571
aI4142
aI10976
aI14519
aI998
aI17846
aI7014
aI403
aI16927
aI5103
aI17308
aI5965
aI7886
aI4245
aI9468
aI13271
aI83
aI5014
aI17685
aI11533
aI10377
aI9570
aI13653
aI172
aI7928
aI4251
aI10688
aI2055
aI19486
aI139
aI15916
aI11931
aI7387
aI16036
aI11729
aI8335
aI8099
aI2987
aI24
aI14510
aI11887
aI5833
aI12349
aI18061
aI6395
aI14063
aI19237
aI6254
aI11204
aI3539
aI13498
aI3299
aI15078
aI13283
aI9185
aI4885
aI7849
aI1224
aI2726
aI14111
aI18960
aI13117
aI19089
aI14269
aI6382
aI13616
aI4359
aI2721
aI19202
aI19237
aI10145
aI4187
aI14911
aI475
aI7537
aI11552
aI978
aI7154
aI2475
aI8773
aI17828
aI10283
aI1285
aI9572
aI18192
aI16671
aI4473
aI18699
aI8622
aI14503
aI16168
aI7719
aI6730
aI18597
aI7768
aI821
aI18620
aI425
aI7056
aI12008
aI5265
aI5604
aI388
aI18661
aI4048
aI19568
aI12549
aI14960
aI5702
aI4030
aI16625
aI9946
aI11798
aI17805
aI2138
aI8035
aI1250
aI16811
aI8856
aI7330
aI15383
aI6008
aI3321
aI9665
aI14319
aI9669
aI7665
aI13705
aI12168
aI8217
aI3057
aI8990
aI13717
aI13574
aI1021
aI15710
aI19517
aI3302
aI12674
aI12906
aI16148
aI18493
aI11017
aI3774
aI5564
aI6578
aI10143
aI16074
aI9520
aI793
aI4194
aI16776
aI12182
aI14019
aI2131
aI12692
aI12937
aI5703
aI3884
aI12755
aI6472
aI19820
aI14088
aI4215
aI447
aI4736
aI9216
aI691
aI19381
aI2122
aI2388
aI11638
aI10904
aI4589
aI16208
aI13722
aI6387
aI10911
aI1125
aI10636
aI17023
aI17612
aI17328
aI3438
aI13132
aI15204
aI11193
aI13954
aI7549
aI4459
aI1460
aI19368
aI9458
aI12799
aI3603
aI11863
aI19372
aI418
aI15748
aI9093
aI6982
aI11901
aI13013
aI6857
aI6059
aI18922
aI19564
aI13479
aI11573
aI18695
aI2823
aI18
aI19084
aI2257
aI17533
aI5505
aI12238
aI1965
aI3173
aI13257
aI1337
aI13820
aI3310
aI6753
aI7946
aI3394
aI7619
aI12227
aI13483
aI11412
aI3760
aI2783
aI1200
aI15939
aI18898
aI3568
aI15494
aI5331
aI13359
aI1465
aI11825
aI12444
aI11076
aI13456
aI12644
aI15734
aI2324
aI266
aI19775
aI4838
aI7126
aI8734
aI16154
aI19014
aI19503
aI14780
aI4848
aI6068
aI11912
aI525
aI3812
aI18863
aI12154
aI9527
aI6413
aI17981
aI733
aI16299
aI8543
aI1359
aI6631
aI482
aI12924
aI17974
aI19903
aI9514
aI919
aI7319
aI12836
aI588
aI10406
aI18286
aI10874
aI17347
aI19500
aI12632
aI9278
aI15731
aI12113
aI17812
aI5280
aI2602
aI9199
aI18763
aI6690
aI4348
aI9012
aI64
aI9679
aI17556
aI15520
aI3379
aI7615
aI16059
aI3262
aI11656
aI6066
aI6825
aI13511
aI15326
aI2167
aI5800
aI19661
aI10239
aI9939
aI7625
aI9368
aI3636
aI3038
aI3104
aI14293
aI10923
aI7617
aI2290
aI16052
aI16029
aI11673
aI11954
aI7926
aI9728
aI10591
aI16744
aI9449
aI2508
aI8459
aI18001
aI5269
aI16590
aI9777
aI8410
aI6614
aI7357
aI1143
aI18264
aI11110
aI4993
aI11664
aI7610
aI16077
aI12366
aI5076
aI13086
aI19211
aI14645
aI11748
aI19919
aI17902
aI14818
aI17586
aI11607
aI19501
aI3743
aI13082
aI12080
aI184
aI15924
aI6388
aI12715
aI9237
aI7094
aI2227
aI3210
aI12866
aI5034
aI2296
aI14424
aI17915
aI17883
aI2365
aI5190
aI7046
aI10447
aI12569
aI9432
aI9654
aI270
aI9988
aI16633
aI17144
aI19947
aI882
aI9646
aI3583
aI16594
aI12980
aI13984
aI9072
aI13444
aI18918
aI1298
aI16002
aI11208
aI17765
aI19489
aI18608
aI1067
aI18252
aI2359
aI2832
aI4537
aI9641
aI16907
aI6542
aI329
aI12899
aI15685
aI12361
aI14248
aI1653
aI19656
aI9185
aI17075
aI16598
aI17816
aI7790
aI19714
aI10527
aI17844
aI18906
aI9083
aI2534
aI9611
aI15159
aI10180
aI6962
aI10306
aI7324
aI9219
aI17542
aI15089
aI2011
aI17585
aI5146
aI14296
aI4302
aI14129
aI4427
aI18856
aI2847
aI4997
aI8280
aI5701
aI19621
aI16850
aI3860
aI13593
aI11328
aI16248
aI19861
aI4460
aI14651
aI13922
aI334
aI12661
aI886
aI4502
aI5692
aI4653
aI9995
aI15485
aI8069
aI16275
aI11811
aI12647
aI2521
aI11300
aI15738
aI14245
aI17922
aI11320
aI16603
aI12285
aI4434
aI15294
aI7292
aI12989
aI2575
aI12924
aI6119
aI717
aI18663
aI19925
aI15099
aI3233
aI14130
aI8126
aI2216
aI6880
aI16130
aI7751
aI1192
aI11010
aI4748
aI1725
aI11315
aI10366
aI8244
aI2080
aI16632
aI13981
aI9162
aI19817
aI14777
aI7279
aI2672
aI18700
aI5
aI492
aI11547
aI8032
aI4556
aI11219
aI14066
aI5741
aI17967
aI13579
aI7022
aI218
aI4927
aI13518
aI12159
aI18654
aI10605
aI16659
aI10338
aI14312
aI9188
aI11041
aI472
aI16599
aI3526
aI10957
aI2241
aI18105
aI8267
aI17693
aI15172
aI2426
aI14915
aI9391
aI2284
aI5054
aI6245
aI4607
aI9866
aI10235
aI19210
aI14739
aI15664
aI12243
aI16857
aI17393
aI1576
aI10140
aI14000
aI19244
aI10496
aI12179
aI11907
aI12449
aI6582
aI7727
aI17705
aI12488
aI15416
aI18779
aI14629
aI4755
aI19865
aI7708
aI4728
aI19683
aI3345
aI17735
aI13785
aI10299
aI12701
aI11165
aI18883
aI12015
aI3478
aI11649
aI19866
aI5947
aI2503
aI8787
aI9762
aI15457
aI17143
aI11965
aI19936
aI7089
aI4230
aI2755
aI7783
aI5305
aI4017
aI9900
aI8107
aI6172
aI10237
aI7045
aI8194
aI2105
aI8123
aI3454
aI3108
aI9299
aI18966
aI6640
aI19330
aI1823
aI2817
aI10694
aI241
aI15830
aI19047
aI17726
aI18411
aI13581
aI7012
aI18335
aI3185
aI2430
aI19986
aI18908
aI13033
aI3810
aI7678
aI7065
aI7858
aI1252
aI18343
aI7755
aI18473
aI17120
aI16972
aI7422
aI4726
aI13382
aI5561
aI357
aI15142
aI18262
aI1002
aI17110
aI10856
aI13677
aI4481
aI3343
aI7190
aI9449
aI7859
aI13180
aI9221
aI9093
aI17163
aI14830
aI7661
aI4752
aI14945
aI19589
aI15808
aI7590
aI9145
aI4932
aI18342
aI1452
aI12966
aI19696
aI2640
aI4689
aI16876
aI10876
aI9935
aI361
aI8916
aI11275
aI7894
aI19895
aI7957
aI6066
aI16877
aI13191
aI7856
aI7164
aI15785
aI16048
aI5640
aI13648
aI16718
aI5548
aI3343
aI9363
aI3027
aI11867
aI16835
aI7958
aI5171
aI1690
aI17734
aI1871
aI16147
aI19236
aI19749
aI8534
aI1055
aI17899
aI6461
aI13004
aI2490
aI13372
aI16193
aI3062
aI3891
aI858
aI14765
aI3535
aI17448
aI6139
aI6563
aI11532
aI18373
aI13606
aI7604
aI8949
aI16201
aI14775
aI19599
aI10902
aI1994
aI12302
aI60
aI15493
aI2571
aI2770
aI6183
aI4289
aI5823
aI3655
aI11976
aI1608
aI16378
aI7608
aI3848
aI8963
aI9439
aI15096
aI12889
aI3505
aI13957
aI206
aI11077
aI15176
aI6825
aI100
aI6731
aI3593
aI1743
aI17577
aI8325
aI5459
aI12228
aI6350
aI19593
aI9130
aI7715
aI19251
aI12468
aI6035
aI7952
aI9172
aI8739
aI5743
aI11882
aI14408
aI19905
aI3078
aI15351
aI10430
aI4862
aI10149
aI12655
aI7131
aI6325
aI19604
aI6295
aI14897
aI2170
aI3702
aI19979
aI14211
aI16192
aI7824
aI6490
aI10900
aI12465
aI3853
aI17365
aI16511
aI708
aI13241
aI12147
aI4913
aI3691
aI18030
aI5769
aI3841
aI17958
aI11400
aI473
aI15120
aI2477
aI8680
aI488
aI3454
aI4643
aI7959
aI18557
aI1637
aI4446
aI17033
aI16938
aI10067
aI5539
aI3054
aI18995
aI12568
aI9710
aI6054
aI18752
aI2994
aI18216
aI4932
aI12750
aI3877
aI15883
aI12772
aI1478
aI4737
aI18064
aI19039
aI11094
aI12949
aI10614
aI17812
aI671
aI971
aI14920
aI19051
aI12942
aI2211
aI3281
aI3677
aI17009
aI13144
aI1593
aI2520
aI2622
aI10214
aI8289
aI8373
aI6323
aI13180
aI17444
aI16477
aI1025
aI10594
aI11550
aI4217
aI9267
aI9529
aI5234
aI15378
aI6835
aI6158
aI15787
aI7927
aI9711
aI16307
aI10122
aI16795
aI14979
aI8432
aI13091
aI10340
aI1106
aI18162
aI8972
aI395
aI7429
aI5755
aI6339
aI5496
aI3466
aI11396
aI6231
aI6098
aI8174
aI6229
aI2242
aI18757
aI17921
aI11134
aI4918
aI4747
aI2972
aI9624
aI18192
aI12371
aI748
aI5367
aI17485
aI19885
aI2630
aI4004
aI10022
aI1241
aI12515
aI96
aI14119
aI17393
aI6953
aI8085
aI14346
aI1916
aI13460
aI3248
aI17621
aI8967
aI3780
aI6208
aI15183
aI8576
aI19731
aI2046
aI19081
aI18357
aI5497
aI6679
aI1700
aI4353
aI14976
aI5157
aI16829
aI922
aI8982
aI13646
aI3069
aI14917
aI17258
aI10460
aI8944
aI13162
aI19893
aI13792
aI11084
aI9663
aI13856
aI16468
aI18758
aI6537
aI18755
aI3342
aI10104
aI16792
aI13928
aI12997
aI4510
aI11985
aI399
aI2768
aI17763
aI17646
aI6291
aI11034
aI14667
aI9243
aI17059
aI18083
aI3348
aI11158
aI1969
aI6071
aI9777
aI10007
aI5515
aI2527
aI3765
aI7067
aI5299
aI11223
aI1549
aI8026
aI12678
aI14904
aI10981
aI5466
aI8603
aI1628
aI209
aI9902
aI8848
aI893
aI15088
aI9998
aI10763
aI4216
aI1206
aI7432
aI3600
aI14007
aI9671
aI17761
aI18777
aI14224
aI19270
aI19373
aI4202
aI6263
aI6821
aI8622
aI12399
aI13782
aI11603
aI13095
aI11758
aI10327
aI619
aI10671
aI3327
aI4590
aI6386
aI135
aI18476
aI16414
aI16134
aI19991
aI9117
aI19125
aI10006
aI4872
aI2306
aI2312
aI11547
aI1698
aI8188
aI4079
aI7486
aI6579
aI5571
aI7413
aI7093
aI7048
aI5308
aI9669
aI401
aI16085
aI15338
aI10683
aI2024
aI7560
aI6857
aI119
aI8605
aI13510
aI2277
aI14112
aI13453
aI13099
aI15231
aI5411
aI915
aI5484
aI1450
aI4310
aI5826
aI14299
aI2768
aI5168
aI6081
aI2251
aI14077
aI3625
aI10683
aI15771
aI266
aI361
aI10728
aI17671
aI15146
aI6508
aI2846
aI7678
aI15871
aI11760
aI2948
aI17956
aI12635
aI6535
aI1252
aI8075
aI15518
aI18538
aI4957
aI3607
aI2115
aI9854
aI8792
aI6131
aI3765
aI4939
aI3988
aI12455
aI8437
aI10337
aI13424
aI17136
aI18214
aI1725
aI4642
aI7990
aI8189
aI19827
aI13506
aI14709
aI3522
aI5273
aI19402
aI16370
aI12986
aI10799
aI7824
aI18224
aI12277
aI8138
aI2630
aI12940
aI13978
aI10311
aI9205
aI6403
aI8416
aI4278
aI7483
aI7331
aI12085
aI2948
aI19534
aI11184
aI11452
aI622
aI14669
aI3019
aI10060
aI13385
aI9496
aI4653
aI9157
aI5007
aI15515
aI8513
aI18400
aI14277
aI17748
aI15504
aI10817
aI7494
aI2976
aI8601
aI11504
aI16700
aI8362
aI10406
aI19304
aI15333
aI9972
aI3563
aI17407
aI3469
aI7543
aI18763
aI4133
aI3505
aI3060
aI8466
aI6054
aI3507
aI10380
aI19755
aI10528
aI3746
aI9936
aI4226
aI15070
aI12810
aI16417
aI6313
aI4736
aI10620
aI8429
aI6392
aI3072
aI4895
aI4065
aI2095
aI7141
aI6065
aI9933
aI14121
aI9726
aI13350
aI1540
aI17217
aI9888
aI12338
aI15203
aI8163
aI13744
aI590
aI17467
aI15283
aI17415
aI7110
aI11777
aI6560
aI13648
aI575
aI15656
aI16846
aI4765
aI16133
aI10464
aI10327
aI13723
aI11584
aI17168
aI2047
aI15288
aI3180
aI15769
aI3182
aI16916
aI11252
aI811
aI2558
aI2476
aI7261
aI191
aI10269
aI10212
aI9946
aI11887
aI19360
aI10690
aI15331
aI14445
aI16561
aI1902
aI11267
aI8335
aI12414
aI13689
aI13964
aI19439
aI3685
aI4867
aI3637
aI7874
aI18692
aI7539
aI6934
aI9260
aI6956
aI13623
aI9743
aI8366
aI3757
aI12078
aI6611
aI19839
aI1039
aI8329
aI8068
aI6283
aI17703
aI19914
aI18477
aI7842
aI13626
aI15943
aI267
aI16399
aI13496
aI11259
aI17955
aI13959
aI18173
aI7678
aI12634
aI3450
aI16543
aI3449
aI17870
aI9549
aI13291
aI17218
aI14345
aI17510
aI2419
aI15535
aI12661
aI14377
aI17756
aI4186
aI19685
aI1243
aI9142
aI7488
aI327
aI11095
aI7053
aI10070
aI2489
aI19982
aI1608
aI12881
aI19168
aI5180
aI5819
aI17835
aI3919
aI10780
aI799
aI99
aI12814
aI19166
aI5150
aI17196
aI15468
aI10906
aI9262
aI11390
aI10500
aI18040
aI17292
aI12253
aI10285
aI10194
aI18077
aI18454
aI4727
aI9187
aI7207
aI12228
aI14143
aI10463
aI19890
aI2995
aI10953
aI7794
aI9090
aI12
aI470
aI18272
aI6313
aI7678
aI9328
aI7767
aI7849
aI5569
aI19144
aI3788
aI5976
aI9128
aI7681
aI18350
aI3130
aI18915
aI19101
aI17306
aI15431
aI11871
aI1963
aI3995
aI8024
aI1048
aI11895
aI17338
aI14451
aI8445
aI16080
aI7396
aI19408
aI18525
aI7806
aI2021
aI9673
aI14546
aI1440
aI13022
aI6610
aI1557
aI19125
aI6544
aI16998
aI4497
aI11199
aI7546
aI15957
aI12163
aI9122
aI1319
aI13863
aI4449
aI13034
aI15126
aI2501
aI9338
aI15705
aI13562
aI13474
aI9137
aI7552
aI7890
aI373
aI5045
aI15983
aI15470
aI5404
aI15551
aI5585
aI16396
aI2384
aI16348
aI18195
aI9900
aI4229
aI7603
aI2629
aI10601
aI9833
aI5377
aI14165
aI1111
aI3992
aI2262
aI11615
aI2214
aI13782
aI12648
aI13008
aI9425
aI9959
aI10779
aI6734
aI8649
aI2240
aI17394
aI1312
aI11886
aI5871
aI11106
aI2101
aI19913
aI3670
aI17475
aI17569
aI1569
aI8924
aI8199
aI19336
aI12341
aI1852
aI9671
aI15061
aI16239
aI12734
aI1226
aI8450
aI4720
aI4061
aI6325
aI9695
aI7488
aI3386
aI7874
aI5987
aI1552
aI9775
aI988
aI6862
aI6352
aI7599
aI5723
aI12992
aI13916
aI4049
aI7975
aI15761
aI17748
aI19343
aI2944
aI9909
aI2169
aI15921
aI9104
aI16263
aI251
aI571
aI950
aI12978
aI11758
aI10648
aI363
aI2377
aI9728
aI17731
aI13888
aI14340
aI7759
aI19620
aI19351
aI15817
aI17074
aI104
aI9905
aI14635
aI10895
aI5219
aI1148
aI7734
aI8739
aI17936
aI8225
aI14141
aI6442
aI13980
aI18906
aI15982
aI6311
aI14201
aI19084
aI189
aI16866
aI17620
aI10726
aI16219
aI16764
aI19013
aI16561
aI12989
aI4500
aI7409
aI854
aI17893
aI13127
aI6559
aI15336
aI2606
aI3706
aI6381
aI7410
aI19761
aI17111
aI8981
aI10408
aI19674
aI18862
aI7813
aI16315
aI1296
aI18983
aI13939
aI6914
aI652
aI13363
aI2378
aI12847
aI16974
aI11905
aI14864
aI711
aI1424
aI9511
aI835
aI10202
aI18445
aI17702
aI3550
aI19514
aI15148
aI15995
aI12383
aI7045
aI3403
aI9132
aI16951
aI8880
aI13367
aI13392
aI18053
aI4958
aI1122
aI4985
aI14955
aI1878
aI3902
aI8701
aI88
aI10864
aI13533
aI17403
aI8460
aI16035
aI1678
aI2880
aI16862
aI871
aI3607
aI14129
aI612
aI15296
aI5295
aI12759
aI2768
aI4232
aI7197
aI6210
aI8990
aI19081
aI14805
aI14142
aI13097
aI20
aI8544
aI13197
aI13465
aI8399
aI2560
aI16003
aI5127
aI2877
aI14235
aI4109
aI18434
aI17826
aI1247
aI1483
aI3789
aI7401
aI9466
aI8107
aI19852
aI2288
aI10296
aI1004
aI1916
aI14352
aI12053
aI12183
aI17570
aI6418
aI5599
aI8461
aI1548
aI9581
aI6896
aI7322
aI5111
aI5931
aI3988
aI19031
aI8239
aI11700
aI11554
aI12167
aI6944
aI16396
aI11513
aI6780
aI18415
aI9145
aI5830
aI1656
aI525
aI18290
aI14016
aI6210
aI2723
aI14171
aI7535
aI5038
aI3246
aI8021
aI17840
aI3984
aI15811
aI6179
aI12621
aI3182
aI16478
aI7972
aI2412
aI18084
aI5153
aI2383
aI13887
aI16729
aI17024
aI315
aI14131
aI10213
aI9529
aI30
aI10264
aI16059
aI15408
aI4151
aI12800
aI19234
aI10921
aI3592
aI18537
aI540
aI6187
aI15035
aI18766
aI4842
aI4579
aI4925
aI7284
aI6334
aI11757
aI13789
aI16311
aI9890
aI642
aI4712
aI13100
aI8380
aI8244
aI3462
aI522
aI10344
aI19574
aI9701
aI5439
aI11334
aI6061
aI4492
aI1303
aI13906
aI13917
aI19153
aI13355
aI2996
aI1527
aI18918
aI3992
aI7185
aI9607
aI13745
aI2944
aI15044
aI15731
aI16730
aI15343
aI5936
aI15580
aI5624
aI19178
aI11772
aI13353
aI323
aI18438
aI5160
aI2180
aI1747
aI18247
aI624
aI17351
aI15904
aI5971
aI5327
aI4128
aI1810
aI10404
aI18821
aI15383
aI17519
aI10789
aI4753
aI10467
aI2580
aI13617
aI1118
aI2303
aI19497
aI17534
aI6725
aI140
aI15018
aI354
aI5307
aI10224
aI10529
aI4665
aI14131
aI16495
aI13464
aI4736
aI5939
aI15045
aI9776
aI3622
aI229
aI15357
aI11316
aI14559
aI12468
aI18259
aI10649
aI126
aI13728
aI7908
aI4592
aI15278
aI13114
aI6713
aI15778
aI14279
aI11409
aI8211
aI13121
aI3250
aI3354
aI16391
aI1674
aI16523
aI19717
aI3825
aI5378
aI3024
aI3179
aI8511
aI7812
aI10230
aI5621
aI9760
aI10768
aI2818
aI17836
aI16017
aI9755
aI6228
aI4987
aI4451
aI5236
aI5218
aI1459
aI7704
aI4148
aI11907
aI12889
aI185
aI1100
aI9939
aI15690
aI14216
aI11649
aI6842
aI1597
aI6752
aI7095
aI7442
aI19834
aI15303
aI9317
aI18693
aI15197
aI18520
aI5926
aI9574
aI14294
aI15247
aI9360
aI5978
aI241
aI11436
aI10753
aI1170
aI19815
aI16647
aI2862
aI15416
aI7629
aI12688
aI3129
aI19531
aI3185
aI1808
aI13002
aI7163
aI16112
aI1254
aI5219
aI10064
aI7123
aI6589
aI19406
aI9593
aI13200
aI14338
aI11943
aI7797
aI10996
aI441
aI14388
aI2106
aI19870
aI764
aI11034
aI3365
aI4990
aI9226
aI4304
aI13814
aI4186
aI11693
aI2957
aI9124
aI18017
aI1506
aI7480
aI4822
aI14132
aI17812
aI18981
aI17604
aI11993
aI14985
aI13484
aI8994
aI15640
aI12968
aI13490
aI13879
aI18576
aI8460
aI18398
aI6381
aI11591
aI8931
aI7400
aI9538
aI10986
aI2879
aI5969
aI10711
aI17482
aI204
aI16779
aI2798
aI13733
aI11928
aI5127
aI18689
aI2577
aI5377
aI16654
aI14814
aI19834
aI15561
aI5238
aI7459
aI5269
aI7550
aI3896
aI3113
aI14748
aI15074
aI17565
aI10858
aI14128
aI5719
aI7463
aI5240
aI14528
aI15935
aI2957
aI4043
aI8265
aI16450
aI6482
aI16325
aI12176
aI11217
aI1303
aI12347
aI1849
aI5420
aI15942
aI7498
aI1627
aI5900
aI8148
aI15966
aI5554
aI17498
aI18706
aI13387
aI19210
aI574
aI5434
aI9723
aI565
aI996
aI1285
aI24
aI1614
aI1916
aI16945
aI8525
aI19869
aI17831
aI854
aI9119
aI18919
aI13940
aI12865
aI104
aI1146
aI5376
aI14867
aI6027
aI347
aI5717
aI19924
aI18044
aI14298
aI18190
aI1616
aI12004
aI15219
aI13366
aI12141
aI6116
aI10110
aI19942
aI18733
aI14784
aI5282
aI11725
aI18772
aI4895
aI19183
aI6992
aI15593
aI19612
aI16768
aI6231
aI6754
aI12507
aI8673
aI5749
aI17601
aI1942
aI19618
aI18055
aI11136
aI14072
aI13879
aI18600
aI16932
aI7294
aI11160
aI19356
aI2408
aI14727
aI5940
aI12252
aI5540
aI3476
aI16201
aI13531
aI12175
aI1886
aI14834
aI9937
aI16961
aI9400
aI13535
aI11886
aI10981
aI15926
aI1947
aI13662
aI6726
aI11073
aI14503
aI18498
aI19646
aI10823
aI12989
aI88
aI5917
aI10986
aI9444
aI7130
aI8818
aI18605
aI9702
aI17828
aI5192
aI16117
aI18359
aI16348
aI11393
aI17774
aI13462
aI1664
aI13448
aI1650
aI13875
aI8611
aI10586
aI5320
aI12600
aI14063
aI18442
aI618
aI15267
aI12020
aI11095
aI4718
aI18932
aI646
aI155
aI4624
aI9799
aI18818
aI900
aI9534
aI3256
aI16781
aI14626
aI14452
aI6618
aI5614
aI14982
aI16858
aI15201
aI17849
aI18966
aI19725
aI7819
aI19658
aI1363
aI16888
aI7198
aI11356
aI11838
aI16006
aI1342
aI14105
aI19386
aI12220
aI13202
aI3888
aI1232
aI5753
aI6333
aI18054
aI11559
aI7401
aI6835
aI17313
aI5309
aI5569
aI2372
aI3477
aI1591
aI16060
aI10705
aI13043
aI15223
aI5882
aI4645
aI12295
aI11845
aI4222
aI9527
aI568
aI5868
aI15158
aI3754
aI18153
aI11456
aI7704
aI611
aI10504
aI7657
aI1353
aI7171
aI1995
aI18529
aI4745
aI15487
aI8149
aI14352
aI18662
aI164
aI2710
aI19612
aI18533
aI808
aI4708
aI7559
aI8670
aI16662
aI5855
aI12323
aI16452
aI1069
aI12356
aI17694
aI18577
aI16870
aI2143
aI3992
aI16399
aI19427
aI12662
aI6687
aI12269
aI6927
aI15900
aI10670
aI4835
aI13342
aI3144
aI9081
aI15680
aI4588
aI16540
aI18090
aI9669
aI17223
aI11525
aI11152
aI16643
aI5453
aI13406
aI826
aI15400
aI11814
aI8418
aI3878
aI9133
aI11451
aI19356
aI9202
aI2998
aI13363
aI5759
aI15490
aI18035
aI14546
aI16563
aI6880
aI10119
aI5987
aI6608
aI13976
aI9098
aI3957
aI7578
aI6644
aI9354
aI12414
aI17539
aI15048
aI15356
aI9248
aI7358
aI13213
aI11427
aI16932
aI17167
aI1196
aI6967
aI7512
aI16311
aI8806
aI6543
aI423
aI6569
aI10991
aI10982
aI17668
aI12344
aI5305
aI19300
aI13586
aI15340
aI16386
aI8196
aI19181
aI17240
aI19632
aI15581
aI13807
aI8974
aI14752
aI226
aI6545
aI9875
aI9154
aI9119
aI19643
aI4333
aI19209
aI9430
aI17828
aI16924
aI8505
aI9278
aI15352
aI4213
aI5421
aI1424
aI6029
aI19095
aI4671
aI13624
aI4831
aI15263
aI13450
aI18265
aI1547
aI4449
aI18841
aI16337
aI5707
aI15169
aI4663
aI4685
aI7363
aI516
aI19044
aI15148
aI7760
aI18773
aI4692
aI16841
aI16511
aI7730
aI12117
aI16224
aI13929
aI6933
aI4171
aI6197
aI14891
aI18998
aI8479
aI17230
aI11762
aI5681
aI6571
aI17664
aI752
aI11214
aI11100
aI14280
aI11109
aI14821
aI1539
aI16062
aI1865
aI3402
aI18082
aI4176
aI16906
aI16799
aI11282
aI8122
aI16569
aI17125
aI7746
aI17579
aI1430
aI16030
aI4860
aI13349
aI8616
aI10678
aI5089
aI14645
aI15999
aI16126
aI8780
aI14532
aI13454
aI12759
aI3781
aI6271
aI15166
aI8093
aI10665
aI307
aI4099
aI15336
aI2684
aI5173
aI3405
aI16961
aI14810
aI2187
aI10386
aI15261
aI941
aI718
aI2184
aI14861
aI5419
aI1281
aI4786
aI315
aI17308
aI11941
aI18244
aI19859
aI4995
aI19973
aI2427
aI17254
aI1097
aI19729
aI12944
aI12055
aI4378
aI6450
aI1013
aI4927
aI7188
aI16386
aI17172
aI2212
aI9817
aI16477
aI13469
aI19533
aI16440
aI1023
aI13340
aI13385
aI2219
aI632
aI19798
aI5555
aI3896
aI7797
aI1103
aI6892
aI16840
aI15811
aI8597
aI12807
aI12943
aI18032
aI19489
aI13901
aI4007
aI14049
aI837
aI4953
aI996
aI7575
aI4276
aI9259
aI14148
aI13589
aI13637
aI17735
aI17543
aI15954
aI7100
aI10452
aI10081
aI10252
aI19642
aI18911
aI526
aI3480
aI3596
aI5891
aI10345
aI3202
aI428
aI12082
aI19145
aI18475
aI1123
aI6230
aI16430
aI9625
aI15572
aI11440
aI11644
aI5440
aI16277
aI17306
aI12088
aI12741
aI16379
aI14097
aI1414
aI5504
aI4039
aI15519
aI17320
aI4042
aI17907
aI7552
aI5589
aI4221
aI19850
aI3277
aI1607
aI1288
aI8886
aI10780
aI8042
aI6346
aI6969
aI7518
aI18733
aI17956
aI16688
aI8391
aI4359
aI1165
aI15319
aI19785
aI10385
aI2708
aI10581
aI3987
aI2810
aI1225
aI16255
aI3035
aI12869
aI3248
aI13457
aI3030
aI1743
aI6505
aI3043
aI3707
aI6833
aI8729
aI1713
aI19939
aI18968
aI16596
aI1454
aI7377
aI608
aI6752
aI12437
aI6934
aI11674
aI6439
aI2613
aI13250
aI3676
aI14836
aI14562
aI7465
aI2409
aI11299
aI4638
aI18573
aI14616
aI15833
aI17971
aI19165
aI2192
aI16640
aI16350
aI2393
aI13502
aI10959
aI3337
aI8214
aI1611
aI14434
aI16819
aI14741
aI16473
aI192
aI18099
aI6518
aI3737
aI7513
aI5968
aI18501
aI9535
aI7236
aI4073
aI2346
aI19433
aI14036
aI1636
aI17213
aI13250
aI4596
aI3893
aI1102
aI15849
aI2385
aI16416
aI8917
aI4842
aI10293
aI19011
aI16615
aI12279
aI6033
aI15870
aI7082
aI3627
aI3172
aI13616
aI19266
aI1832
aI4267
aI13976
aI6257
aI19082
aI1712
aI14942
aI7594
aI2435
aI11367
aI1150
aI11167
aI15685
aI5459
aI4454
aI7421
aI9940
aI981
aI10090
aI15800
aI17139
aI12406
aI15050
aI15113
aI19625
aI16586
aI16058
aI8607
aI18722
aI13841
aI10424
aI2150
aI13369
aI18570
aI8112
aI4168
aI3039
aI12994
aI8148
aI17243
aI4916
aI19307
aI14807
aI2876
aI14896
aI19414
aI2837
aI15055
aI17782
aI14606
aI3295
aI9668
aI7904
aI18789
aI668
aI17855
aI6472
aI5616
aI18122
aI3142
aI1458
aI1789
aI15698
aI5654
aI15830
aI16216
aI13875
aI11812
aI12944
aI2034
aI7527
aI10645
aI11335
aI994
aI3899
aI4899
aI10535
aI11494
aI4241
aI18010
aI13585
aI2179
aI18687
aI11853
aI13023
aI9569
aI662
aI13276
aI15002
aI5314
aI14555
aI13318
aI7332
aI16872
aI8699
aI10695
aI9543
aI8455
aI10813
aI6152
aI18004
aI6198
aI12958
aI11219
aI1458
aI3713
aI15839
aI12410
aI18285
aI4478
aI11474
aI13966
aI17130
aI7769
aI4265
aI7326
aI3888
aI8772
aI4251
aI17775
aI4096
aI8709
aI13670
aI16032
aI15551
aI6069
aI5425
aI14428
aI4084
aI12275
aI14748
aI1307
aI11749
aI981
aI670
aI1256
aI9402
aI16111
aI18579
aI6593
aI11333
aI18636
aI16518
aI4535
aI8135
aI17282
aI3861
aI3583
aI15314
aI2578
aI1318
aI18133
aI14744
aI11462
aI1096
aI16656
aI17757
aI25
aI7531
aI3358
aI13639
aI2526
aI16198
aI4116
aI17893
aI15597
aI15979
aI10844
aI1060
aI534
aI11950
aI16324
aI19760
aI13255
aI8729
aI12206
aI8100
aI6245
aI3051
aI10359
aI9187
aI6007
aI11585
aI15810
aI15644
aI6382
aI16147
aI2992
aI17912
aI17164
aI18095
aI14882
aI767
aI9616
aI4692
aI15574
aI15332
aI13974
aI16024
aI13661
aI13926
aI1563
aI10304
aI13638
aI15647
aI7940
aI15590
aI1847
aI4654
aI14721
aI2431
aI3488
aI19074
aI5496
aI7612
aI17407
aI3915
aI18116
aI17453
aI8487
aI14980
aI19275
aI11493
aI16608
aI13608
aI15295
aI17817
aI7608
aI3521
aI6754
aI6919
aI18911
aI13942
aI18407
aI17056
aI2172
aI4709
aI12876
aI17522
aI2036
aI19454
aI1707
aI7455
aI9254
aI1692
aI13221
aI17463
aI9925
aI4065
aI8866
aI6724
aI9201
aI5439
aI10209
aI18185
aI763
aI15571
aI7323
aI5745
aI15015
aI14555
aI19647
aI17554
aI16219
aI19932
aI4867
aI7693
aI7939
aI9066
aI2708
aI770
aI4359
aI10548
aI4960
aI11540
aI12964
aI1989
aI7266
aI13750
aI3517
aI11001
aI15123
aI8132
aI3353
aI1566
aI616
aI11959
aI7954
aI11676
aI10050
aI210
aI11437
aI6413
aI8950
aI19434
aI75
aI14014
aI2755
aI15661
aI9210
aI10885
aI5091
aI15106
aI4125
aI1868
aI15855
aI12219
aI5641
aI18291
aI2362
aI19316
aI1342
aI5524
aI13193
aI11419
aI8307
aI751
aI2413
aI6165
aI13492
aI9588
aI9933
aI2938
aI1943
aI14012
aI14779
aI8636
aI16682
aI9852
aI3176
aI6847
aI15582
aI9358
aI13699
aI14939
aI14356
aI8505
aI10356
aI5428
aI17155
aI18022
aI7647
aI8690
aI17060
aI9251
aI8401
aI1807
aI4059
aI18118
aI3885
aI2627
aI2452
aI19041
aI1082
aI574
aI12009
aI16286
aI1114
aI13046
aI7758
aI3161
aI10229
aI3730
aI6652
aI11961
aI6685
aI16117
aI5263
aI8573
aI3067
aI16907
aI587
aI9475
aI17983
aI3851
aI17101
aI12373
aI1344
aI9978
aI16059
aI1271
aI16217
aI14812
aI7029
aI8729
aI18052
aI9803
aI3275
aI10567
aI6213
aI17595
aI11335
aI4367
aI14118
aI11798
aI8946
aI15855
aI6018
aI16506
aI13504
aI11746
aI1137
aI11810
aI11797
aI4012
aI10308
aI19099
aI10851
aI5455
aI2383
aI19875
aI413
aI14510
aI1431
aI18762
aI18213
aI2662
aI2758
aI15998
aI1278
aI15676
aI3256
aI10854
aI12870
aI15149
aI2211
aI473
aI7293
aI11612
aI1656
aI2621
aI15143
aI4717
aI130
aI1827
aI10155
aI13528
aI11900
aI15607
aI6885
aI14284
aI9082
aI16586
aI8667
aI7369
aI3108
aI5705
aI1877
aI17540
aI9962
aI11560
aI12803
aI4259
aI14127
aI3500
aI11372
aI14348
aI5219
aI12022
aI19039
aI16304
aI4649
aI12853
aI17279
aI14322
aI12683
aI4997
aI4194
aI4104
aI5568
aI15151
aI726
aI4351
aI8537
aI10881
aI11280
aI15136
aI3027
aI8951
aI12328
aI6646
aI12600
aI3166
aI5840
aI10361
aI16257
aI1735
aI15713
aI547
aI3270
aI14449
aI3096
aI12882
aI19875
aI15096
aI8790
aI8291
aI6449
aI13337
aI3998
aI10301
aI5605
aI9851
aI9851
aI10404
aI11570
aI6707
aI16144
aI9928
aI5991
aI1022
aI8581
aI10359
aI15104
aI2703
aI9729
aI17412
aI13887
aI8503
aI14331
aI17301
aI17543
aI19403
aI8960
aI11608
aI6440
aI14365
aI17189
aI15858
aI19313
aI9973
aI7550
aI13717
aI4099
aI10972
aI16462
aI12438
aI13257
aI7345
aI3690
aI18884
aI14620
aI14406
aI13930
aI4682
aI9421
aI2291
aI4891
aI16768
aI5745
aI12692
aI5033
aI11550
aI14012
aI6410
aI13091
aI11571
aI16851
aI17105
aI5001
aI5693
aI9799
aI16481
aI12673
aI2569
aI9422
aI10540
aI8386
aI11755
aI7887
aI6452
aI1822
aI2161
aI19494
aI19636
aI16981
aI19680
aI4800
aI16096
aI723
aI13697
aI15120
aI16088
aI17414
aI18641
aI380
aI4139
aI19813
aI16071
aI9595
aI11605
aI7734
aI8888
aI11481
aI4578
aI11183
aI1780
aI11636
aI2738
aI5748
aI2917
aI12600
aI13025
aI1114
aI3011
aI4926
aI19963
aI16284
aI6428
aI17079
aI2161
aI16356
aI4444
aI6334
aI19585
aI5877
aI7182
aI6502
aI10329
aI13243
aI9026
aI19916
aI4615
aI19332
aI14636
aI8521
aI10412
aI7886
aI15646
aI3933
aI10641
aI11385
aI1739
aI14964
aI1215
aI12696
aI12351
aI11264
aI18249
aI3912
aI8740
aI4
aI4527
aI13143
aI14854
aI10105
aI6268
aI6221
aI6784
aI5665
aI17974
aI13991
aI15451
aI12629
aI6190
aI17179
aI13657
aI13944
aI10838
aI12694
aI11471
aI14513
aI13178
aI4441
aI8097
aI11117
aI7673
aI14863
aI405
aI19185
aI7812
aI11705
aI18084
aI3405
aI3100
aI10417
aI15502
aI15253
aI5663
aI4803
aI4826
aI3701
aI15273
aI19083
aI14688
aI18005
aI4872
aI11690
aI11289
aI18195
aI15027
aI11192
aI1873
aI997
aI3823
aI18512
aI3839
aI12957
aI7469
aI10110
aI13608
aI3571
aI8614
aI5112
aI13992
aI17283
aI14111
aI7990
aI11318
aI18818
aI13528
aI14542
aI3410
aI16111
aI10088
aI15894
aI9006
aI4711
aI9191
aI1474
aI6624
aI19438
aI3719
aI14406
aI5867
aI3468
aI16151
aI19467
aI2237
aI2331
aI17921
aI19326
aI19833
aI15695
aI13594
aI5634
aI8071
aI8074
aI18887
aI2521
aI3790
aI3823
aI4290
aI4748
aI6169
aI10806
aI6189
aI4163
aI2775
aI19341
aI2484
aI9337
aI14449
aI6051
aI12296
aI18989
aI16153
aI14698
aI1982
aI5545
aI7613
aI17648
aI11434
aI8278
aI13709
aI10881
aI18905
aI5907
aI12803
aI5209
aI9215
aI12173
aI8500
aI954
aI3403
aI1036
aI3433
aI173
aI7272
aI17342
aI2386
aI4437
aI87
aI18668
aI7201
aI16886
aI13943
aI1938
aI6533
aI15018
aI18838
aI15457
aI9893
aI8089
aI15926
aI16064
aI4559
aI15549
aI16425
aI8671
aI2676
aI10802
aI10199
aI683
aI6166
aI1242
aI18340
aI5177
aI17837
aI18500
aI1024
aI12084
aI2771
aI6486
aI13520
aI7719
aI10356
aI12760
aI6376
aI12392
aI2737
aI10415
aI6652
aI9868
aI4606
aI7784
aI7536
aI7286
aI1325
aI2221
aI10389
aI19936
aI15904
aI9237
aI5478
aI2212
aI9083
aI6054
aI9265
aI16995
aI16379
aI7023
aI19141
aI11763
aI5957
aI19072
aI10998
aI6196
aI12065
aI5379
aI14441
aI19081
aI14371
aI5905
aI7920
aI7970
aI18013
aI14047
aI12733
aI13586
aI15392
aI12380
aI802
aI11403
aI14132
aI17460
aI11178
aI2611
aI2701
aI19619
aI11725
aI4976
aI568
aI15814
aI4670
aI19494
aI16076
aI17416
aI15222
aI797
aI8770
aI16780
aI3776
aI10917
aI1321
aI321
aI13150
aI14019
aI5268
aI11518
aI9068
aI19405
aI8009
aI5766
aI15627
aI8349
aI17009
aI2831
aI13106
aI14287
aI6310
aI9458
aI16015
aI11478
aI11553
aI12636
aI15594
aI13695
aI12300
aI989
aI6887
aI9432
aI3419
aI2129
aI5301
aI7655
aI16790
aI12648
aI11810
aI16827
aI1953
aI7983
aI5724
aI8516
aI18363
aI3320
aI17035
aI8233
aI6371
aI8390
aI3921
aI5694
aI3209
aI15936
aI16102
aI14535
aI7652
aI12278
aI9590
aI4888
aI5936
aI14002
aI13619
aI3856
aI16113
aI19493
aI13509
aI6095
aI5364
aI4845
aI16638
aI1717
aI18642
aI12690
aI16948
aI4800
aI6059
aI4267
aI5033
aI8488
aI14118
aI17432
aI3309
aI14304
aI14559
aI10260
aI9948
aI9837
aI3157
aI1467
aI16973
aI12378
aI13249
aI5785
aI9330
aI15832
aI8763
aI17306
aI17069
aI3525
aI18570
aI15225
aI6500
aI3604
aI10252
aI8147
aI6146
aI8655
aI1428
aI6268
aI16495
aI14828
aI5431
aI10497
aI325
aI18248
aI7171
aI17333
aI1513
aI10195
aI12451
aI7521
aI18438
aI15134
aI9374
aI12959
aI18368
aI3736
aI18533
aI6460
aI2374
aI12110
aI19964
aI100
aI18273
aI13389
aI7639
aI16056
aI2765
aI12856
aI6624
aI17459
aI3420
aI8859
aI13623
aI10958
aI5645
aI867
aI446
aI15763
aI5216
aI10557
aI4787
aI19021
aI19502
aI15919
aI11627
aI9467
aI6353
aI9172
aI11716
aI15332
aI4433
aI3119
aI11081
aI16562
aI8855
aI9339
aI6410
aI4251
aI19807
aI6881
aI14997
aI8681
aI12415
aI19834
aI6957
aI5126
aI18217
aI12134
aI2045
aI15026
aI15832
aI16954
aI18470
aI3082
aI11239
aI9880
aI8998
aI19613
aI2489
aI7917
aI441
aI14186
aI19792
aI8911
aI225
aI1600
aI7850
aI17477
aI2716
aI9779
aI5417
aI14713
aI13401
aI888
aI4799
aI15794
aI10679
aI11960
aI18259
aI19816
aI10810
aI11830
aI8097
aI15112
aI11735
aI12247
aI9670
aI8131
aI6122
aI10492
aI11167
aI4476
aI10672
aI424
aI5651
aI12499
aI294
aI4741
aI9104
aI18790
aI15876
aI13898
aI16784
aI3353
aI9603
aI14355
aI11152
aI775
aI7465
aI323
aI4630
aI12951
aI3402
aI309
aI15256
aI3241
aI15341
aI4609
aI10022
aI18496
aI13468
aI1814
aI16743
aI19321
aI14039
aI19473
aI2832
aI3082
aI6192
aI9479
aI382
aI9968
aI3912
aI15952
aI14196
aI12399
aI2884
aI5219
aI10072
aI13972
aI13932
aI538
aI12047
aI3343
aI6575
aI10414
aI15425
aI18287
aI10647
aI5610
aI11529
aI3045
aI19706
aI4643
aI6012
aI2849
aI19957
aI10180
aI5797
aI19511
aI9526
aI5171
aI18034
aI9841
aI11556
aI18292
aI17580
aI3258
aI15010
aI7062
aI12339
aI12365
aI4890
aI19392
aI12302
aI245
aI11298
aI4240
aI10
aI13771
aI17658
aI13901
aI17928
aI11386
aI4712
aI15318
aI16462
aI13944
aI14055
aI19431
aI5153
aI910
aI1107
aI16573
aI14221
aI11513
aI8427
aI13423
aI498
aI12159
aI12542
aI8557
aI13200
aI12308
aI7526
aI7654
aI13274
aI7273
aI15428
aI4583
aI18709
aI17520
aI13056
aI19821
aI6551
aI17375
aI14449
aI4260
aI4874
aI3857
aI2633
aI9687
aI15809
aI17025
aI6102
aI188
aI11453
aI744
aI2419
aI12851
aI18175
aI11736
aI11282
aI14877
aI12743
aI15409
aI1196
aI19897
aI13284
aI11891
aI6485
aI8493
aI5599
aI17525
aI5258
aI3118
aI12619
aI16415
aI6835
aI16503
aI11652
aI9989
aI13779
aI2231
aI6924
aI2214
aI8384
aI18699
aI6080
aI2282
aI19465
aI18250
aI7545
aI15760
aI7528
aI13798
aI2579
aI4956
aI7114
aI16366
aI5626
aI7063
aI17323
aI18059
aI3740
aI2008
aI16768
aI18996
aI2813
aI13683
aI12020
aI18186
aI7480
aI18052
aI9036
aI4436
aI8432
aI6378
aI14595
aI7747
aI13354
aI19643
aI875
aI3625
aI419
aI18595
aI3210
aI277
aI10673
aI4258
aI14747
aI12965
aI5301
aI12995
aI10580
aI16843
aI7638
aI37
aI18312
aI14133
aI8630
aI10549
aI14432
aI11810
aI14132
aI6020
aI12207
aI11772
aI14783
aI16448
aI19476
aI10125
aI1725
aI1451
aI17407
aI18746
aI11330
aI17691
aI9973
aI13152
aI13724
aI9090
aI15693
aI18875
aI3012
aI12003
aI7395
aI15391
aI7774
aI19206
aI8757
aI10348
aI10446
aI13668
aI14371
aI18342
aI15797
aI2710
aI4518
aI401
aI8128
aI14194
aI3894
aI3802
aI2125
aI15185
aI10826
aI5966
aI8296
aI8212
aI10198
aI2968
aI4377
aI15038
aI15963
aI1791
aI19319
aI16578
aI18935
aI14657
aI18932
aI3276
aI13243
aI2059
aI11600
aI15606
aI6577
aI3208
aI5488
aI19128
aI16705
aI17221
aI1697
aI13942
aI8772
aI3158
aI1198
aI7252
aI9932
aI1039
aI17690
aI11313
aI12797
aI7601
aI3777
aI14270
aI19050
aI8172
aI1070
aI21
aI2001
aI8964
aI15529
aI15403
aI4205
aI937
aI2049
aI3266
aI17914
aI10562
aI18367
aI9383
aI4323
aI19483
aI8575
aI4862
aI11515
aI6904
aI14336
aI19412
aI3335
aI33
aI2535
aI12710
aI7089
aI14598
aI17322
aI3189
aI18583
aI5806
aI74
aI3941
aI16289
aI15912
aI16048
aI13860
aI14617
aI13126
aI8252
aI6444
aI7401
aI4847
aI15228
aI2625
aI9108
aI11638
aI10361
aI2242
aI4693
aI12325
aI5714
aI13872
aI4577
aI18861
aI4101
aI10451
aI1485
aI5679
aI2434
aI3996
aI10215
aI15519
aI18277
aI13900
aI3137
aI511
aI10659
aI6521
aI16096
aI17705
aI10955
aI3849
aI13690
aI6892
aI8284
aI1074
aI4660
aI17129
aI19341
aI12933
aI14016
aI17230
aI10802
aI6231
aI9096
aI5814
aI1569
aI4731
aI7412
aI6348
aI18783
aI12561
aI10574
aI401
aI18035
aI17454
aI754
aI16939
aI326
aI1130
aI9395
aI10397
aI6127
aI14349
aI5052
aI11349
aI14548
aI4233
aI16792
aI16582
aI10877
aI9920
aI4912
aI3627
aI1143
aI4405
aI1639
aI127
aI9814
aI10995
aI6029
aI19236
aI10768
aI2277
aI7970
aI16368
aI16264
aI11737
aI14067
aI9268
aI11242
aI15179
aI8181
aI16122
aI7561
aI10148
aI12799
aI454
aI11908
aI6228
aI1038
aI12250
aI4362
aI17535
aI5580
aI8152
aI17664
aI16723
aI10802
aI8765
aI15275
aI10406
aI9809
aI15614
aI8936
aI2899
aI7880
aI9171
aI9378
aI14685
aI17108
aI11537
aI10427
aI10431
aI16321
aI13287
aI6208
aI7994
aI3028
aI9256
aI9894
aI7300
aI517
aI1268
aI5656
aI8934
aI17101
aI5441
aI12329
aI5552
aI3910
aI18853
aI9906
aI17150
aI5189
aI15693
aI3584
aI18508
aI320
aI17809
aI14997
aI17183
aI6594
aI4233
aI17119
aI12416
aI4915
aI1757
aI18721
aI14624
aI1555
aI5679
aI1423
aI4512
aI9342
aI5057
aI11831
aI14266
aI565
aI8715
aI17446
aI16401
aI9471
aI3913
aI4990
aI1915
aI19359
aI5737
aI18126
aI4166
aI2805
aI910
aI10258
aI2012
aI13552
aI7206
aI10516
aI6844
aI19363
aI4457
aI18302
aI2917
aI11249
aI1815
aI4627
aI12527
aI7519
aI10356
aI5885
aI7405
aI950
aI16879
aI856
aI8655
aI9856
aI16456
aI2932
aI15972
aI14089
aI7495
aI10373
aI16742
aI520
aI6325
aI17347
aI13153
aI14909
aI6143
aI3351
aI9245
aI5219
aI15570
aI19852
aI7538
aI19559
aI7468
aI1622
aI13832
aI18546
aI17760
aI12209
aI5242
aI3686
aI793
aI926
aI13341
aI7835
aI2357
aI14245
aI4506
aI12230
aI7481
aI19729
aI12649
aI8388
aI7274
aI3807
aI16834
aI3232
aI19436
aI10169
aI6526
aI5104
aI5724
aI5229
aI7037
aI13413
aI14915
aI8079
aI17638
aI12066
aI19007
aI6580
aI241
aI11848
aI10345
aI18378
aI18589
aI14150
aI17323
aI18338
aI9948
aI12289
aI11938
aI19054
aI1437
aI14284
aI14212
aI17572
aI18421
aI5975
aI13240
aI8200
aI5592
aI11278
aI4869
aI2761
aI3598
aI4221
aI11483
aI6577
aI9608
aI9960
aI18137
aI18834
aI3084
aI4457
aI3465
aI12017
aI5100
aI6799
aI1092
aI9615
aI7147
aI14624
aI2448
aI13136
aI4008
aI6480
aI16257
aI1310
aI1121
aI18084
aI2639
aI18202
aI19649
aI19141
aI19834
aI10809
aI904
aI2305
aI15569
aI18383
aI1311
aI9317
aI5977
aI4994
aI16157
aI18548
aI10874
aI2824
aI4432
aI14705
aI10796
aI19102
aI14518
aI7645
aI17886
aI7896
aI8541
aI15338
aI7696
aI4434
aI19269
aI5772
aI9104
aI5416
aI15083
aI5746
aI16122
aI9325
aI16692
aI5624
aI17798
aI14238
aI17484
aI9024
aI5679
aI3537
aI6067
aI5452
aI17316
aI17441
aI19174
aI19399
aI13671
aI11665
aI16549
aI12923
aI8704
aI2678
aI18157
aI8450
aI11487
aI10794
aI6029
aI18848
aI9642
aI5615
aI27
aI13178
aI19268
aI12444
aI6506
aI12561
aI1136
aI14875
aI6124
aI12490
aI16900
aI3290
aI17004
aI3554
aI88
aI9490
aI15219
aI2632
aI17901
aI5908
aI9258
aI17534
aI5902
aI3851
aI9031
aI13717
aI10525
aI15426
aI7324
aI11815
aI1789
aI8013
aI2266
aI12315
aI17970
aI4011
aI11656
aI6339
aI6641
aI10697
aI4822
aI1190
aI12642
aI3511
aI2886
aI19634
aI8011
aI111
aI5834
aI15109
aI12007
aI9186
aI11462
aI11821
aI17608
aI336
aI16163
aI4030
aI5513
aI384
aI11491
aI15278
aI7309
aI8337
aI4405
aI9513
aI3688
aI7388
aI667
aI12558
aI13687
aI10414
aI3087
aI14145
aI15906
aI2691
aI1454
aI16960
aI16002
aI17538
aI614
aI6840
aI13188
aI963
aI13457
aI17343
aI11289
aI12883
aI7903
aI2392
aI4596
aI16392
aI10601
aI4552
aI11348
aI17904
aI12168
aI482
aI19571
aI9439
aI9957
aI10734
aI1022
aI17405
aI3979
aI3098
aI16564
aI10371
aI7950
aI2088
aI6819
aI15166
aI8004
aI11775
aI13285
aI13119
aI10081
aI8772
aI5782
aI13701
aI9905
aI4396
aI19816
aI6831
aI15343
aI18668
aI239
aI7035
aI1942
aI911
aI9192
aI12533
aI7629
aI5127
aI10138
aI8013
aI8132
aI5743
aI15562
aI3416
aI14590
aI5469
aI19928
aI16074
aI18563
aI4598
aI7567
aI11316
aI10478
aI11020
aI3833
aI19334
aI15200
aI16556
aI3979
aI8448
aI15717
aI781
aI15994
aI9500
aI12482
aI10700
aI14235
aI2235
aI15657
aI1668
aI17173
aI7082
aI5597
aI12068
aI9579
aI5709
aI12267
aI3560
aI7060
aI8613
aI19174
aI16134
aI15876
aI1722
aI14065
aI8463
aI6493
aI15862
aI9553
aI7755
aI5277
aI6929
aI1840
aI17839
aI17895
aI1818
aI9051
aI18291
aI5945
aI4086
aI13328
aI16877
aI13687
aI15524
aI10955
aI12783
aI3734
aI11396
aI5945
aI19899
aI5232
aI11422
aI2316
aI6668
aI8650
aI4673
aI15826
aI3484
aI14622
aI3601
aI5794
aI2657
aI1344
aI9301
aI7270
aI8416
aI8600
aI5924
aI10770
aI194
aI12739
aI15177
aI18885
aI6775
aI13412
aI1571
aI16928
aI1050
aI3324
aI101
aI10364
aI1557
aI19550
aI2515
aI8304
aI2459
aI11307
aI19402
aI17213
aI18583
aI8599
aI18376
aI1631
aI7793
aI11585
aI3094
aI1047
aI361
aI15271
aI18325
aI6189
aI3518
aI11134
aI9618
aI13520
aI3385
aI12878
aI8366
aI12981
aI12661
aI19383
aI843
aI6354
aI6511
aI6758
aI7603
aI3384
aI8777
aI2970
aI12709
aI7613
aI2388
aI3950
aI11530
aI13567
aI7451
aI85
aI1935
aI5663
aI14870
aI1743
aI4417
aI15792
aI17103
aI5800
aI5130
aI11011
aI6026
aI19146
aI751
aI13951
aI5592
aI6056
aI13879
aI17543
aI11379
aI9298
aI9827
aI19225
aI3232
aI12711
aI2776
aI13658
aI4593
aI8605
aI989
aI9281
aI3333
aI973
aI19151
aI8460
aI16404
aI6247
aI17193
aI2124
aI6312
aI18685
aI15264
aI3969
aI17133
aI15027
aI15257
aI18282
aI10673
aI263
aI9204
aI11581
aI14180
aI19786
aI8456
aI716
aI3229
aI18801
aI1484
aI10635
aI5516
aI6891
aI7600
aI4568
aI9671
aI12286
aI9908
aI251
aI13727
aI13923
aI16693
aI3060
aI13617
aI2260
aI1311
aI15041
aI3793
aI15689
aI8500
aI10481
aI15469
aI9885
aI10279
aI758
aI4728
aI13960
aI18612
aI9257
aI4258
aI9331
aI18005
aI1099
aI10798
aI14850
aI942
aI17201
aI9073
aI11347
aI8682
aI12266
aI15694
aI6696
aI15526
aI6825
aI2840
aI794
aI5439
aI11555
aI2192
aI19497
aI17050
aI4973
aI4154
aI16100
aI10139
aI15287
aI18626
aI2402
aI11877
aI12276
aI19025
aI4236
aI6483
aI1493
aI10869
aI12942
aI14032
aI18014
aI3735
aI10627
aI15121
aI16024
aI17229
aI1569
aI3433
aI18995
aI4514
aI11106
aI4364
aI84
aI19348
aI13595
aI10645
aI15216
aI17253
aI6335
aI14507
aI18474
aI8196
aI12394
aI4115
aI1001
aI8494
aI14909
aI4280
aI16296
aI8132
aI7057
aI17003
aI18140
aI11523
aI9999
aI10115
aI15188
aI11214
aI9094
aI16022
aI11935
aI8011
aI12545
aI18662
aI1724
aI7804
aI2460
aI14700
aI9477
aI19555
aI11280
aI276
aI6004
aI9287
aI19819
aI8618
aI12544
aI7912
aI2763
aI19016
aI12538
aI1719
aI4521
aI2384
aI19797
aI12881
aI1041
aI11550
aI12135
aI13201
aI1552
aI17137
aI2775
aI13102
aI4104
aI16617
aI13468
aI13924
aI15845
aI3601
aI6695
aI19001
aI1039
aI16622
aI10773
aI18478
aI766
aI12838
aI3272
aI565
aI19069
aI13114
aI5473
aI18391
aI9419
aI3803
aI18624
aI16097
aI12121
aI17910
aI6605
aI18244
aI18620
aI9790
aI2946
aI18707
aI8359
aI18531
aI5114
aI13959
aI9779
aI3520
aI18578
aI677
aI8974
aI16477
aI9487
aI2720
aI4313
aI11071
aI11893
aI12482
aI12429
aI11478
aI4078
aI16214
aI8338
aI6793
aI13573
aI944
aI130
aI16592
aI14442
aI6305
aI6984
aI19465
aI18965
aI17885
aI7034
aI11375
aI9513
aI10429
aI15155
aI19206
aI12104
aI16049
aI15461
aI2942
aI18169
aI7648
aI920
aI5129
aI19411
aI18929
aI2885
aI4475
aI6062
aI1829
aI10588
aI15608
aI15138
aI6662
aI10686
aI4210
aI17593
aI18023
aI16928
aI16932
aI11267
aI15328
aI10555
aI11895
aI412
aI5742
aI7182
aI17702
aI7037
aI17512
aI1574
aI9352
aI430
aI6808
aI2519
aI10230
aI8185
aI18688
aI5802
aI7133
aI9389
aI9354
aI1034
aI5656
aI10873
aI14371
aI8989
aI9180
aI11704
aI4438
aI17286
aI4278
aI12259
aI10151
aI13204
aI15783
aI1692
aI2340
aI19201
aI13796
aI6207
aI4120
aI7804
aI18024
aI3942
aI9828
aI18163
aI19242
aI15946
aI3316
aI8092
aI18419
aI13187
aI17994
aI2175
aI18075
aI8180
aI7400
aI14182
aI2462
aI7954
aI3448
aI15515
aI5158
aI12571
aI3301
aI8752
aI11916
aI10112
aI37
aI6293
aI9615
aI14198
aI4883
aI1317
aI11508
aI7168
aI19265
aI12693
aI15336
aI12694
aI9834
aI2684
aI9147
aI6828
aI14665
aI2168
aI18583
aI18799
aI18449
aI1002
aI17767
aI18928
aI19327
aI14379
aI14666
aI11874
aI7244
aI9307
aI2626
aI11625
aI1982
aI6171
aI18882
aI603
aI19598
aI1975
aI814
aI11966
aI10622
aI19180
aI5951
aI10040
aI7451
aI5697
aI17797
aI11011
aI4273
aI7350
aI13447
aI14832
aI17266
aI10757
aI6147
aI2976
aI13387
aI3079
aI9898
aI12601
aI18639
aI8473
aI13489
aI5193
aI17769
aI7768
aI16487
aI16955
aI5690
aI653
aI4219
aI17709
aI15595
aI8944
aI1502
aI3412
aI8090
aI5070
aI7513
aI14081
aI5646
aI9111
aI5624
aI7931
aI6452
aI9095
aI6933
aI13835
aI6944
aI1612
aI8922
aI15093
aI6513
aI15869
aI4643
aI16318
aI2060
aI6551
aI13261
aI12752
aI1200
aI7092
aI9287
aI3328
aI2463
aI7873
aI686
aI1922
aI1782
aI1309
aI15230
aI11887
aI15197
aI3322
aI1810
aI13815
aI18960
aI6914
aI14953
aI158
aI8932
aI5873
aI4644
aI11978
aI13032
aI8045
aI12025
aI4220
aI8522
aI11228
aI834
aI15339
aI1062
aI741
aI4944
aI16630
aI7572
aI7182
aI3313
aI10450
aI12090
aI15758
aI15422
aI461
aI16418
aI11747
aI6931
aI15140
aI12288
aI7784
aI19347
aI8204
aI6578
aI13638
aI11909
aI9117
aI3607
aI14240
aI16902
aI13804
aI9375
aI1403
aI5968
aI13528
aI773
aI3471
aI9288
aI1027
aI6784
aI9630
aI2678
aI939
aI16678
aI18073
aI3900
aI986
aI8029
aI11395
aI1879
aI14977
aI899
aI7143
aI7909
aI283
aI18101
aI7996
aI19843
aI2858
aI8202
aI8727
aI18076
aI10667
aI10149
aI16548
aI13180
aI13705
aI10837
aI2047
aI729
aI15415
aI14835
aI15407
aI14995
aI6296
aI17860
aI12283
aI3606
aI960
aI16981
aI13527
aI17208
aI18768
aI5341
aI7268
aI18591
aI7018
aI18806
aI2778
aI19098
aI15250
aI1232
aI15379
aI12696
aI19722
aI19749
aI7381
aI450
aI1429
aI9654
aI4935
aI1125
aI16324
aI9937
aI8293
aI12341
aI15479
aI14513
aI15065
aI12291
aI5782
aI17477
aI11290
aI2693
aI15155
aI13865
aI13651
aI4753
aI4343
aI8642
aI2492
aI5359
aI13465
aI2843
aI4575
aI7640
aI14233
aI1140
aI13520
aI2055
aI4210
aI4919
aI14259
aI8816
aI388
aI3075
aI6370
aI12142
aI14936
aI14722
aI1987
aI2370
aI14752
aI17943
aI11893
aI5933
aI5237
aI1788
aI16147
aI19399
aI9549
aI13353
aI13661
aI19538
aI12898
aI16462
aI12848
aI13017
aI14336
aI14346
aI16637
aI2029
aI15757
aI15965
aI11167
aI3721
aI17322
aI10790
aI902
aI10709
aI10105
aI3230
aI5666
aI16605
aI7380
aI13832
aI4667
aI15295
aI18560
aI17454
aI12076
aI6489
aI18476
aI13568
aI11377
aI10202
aI10690
aI3132
aI2211
aI11105
aI14274
aI16939
aI1022
aI6280
aI11174
aI10107
aI1619
aI9166
aI6155
aI7022
aI14584
aI16744
aI4540
aI10277
aI9915
aI641
aI12378
aI4552
aI9686
aI15676
aI16800
aI5230
aI6065
aI7092
aI4525
aI1373
aI6238
aI97
aI411
aI11388
aI12490
aI6799
aI7352
aI19920
aI10508
aI2817
aI12425
aI15570
aI10003
aI7577
aI8687
aI11671
aI726
aI11888
aI6413
aI3215
aI7208
aI19141
aI16182
aI12948
aI8248
aI8863
aI11816
aI6560
aI5502
aI4753
aI13740
aI15129
aI16703
aI2761
aI19968
aI3659
aI11356
aI13217
aI7016
aI3795
aI5718
aI2704
aI10590
aI2896
aI11551
aI3353
aI12683
aI15865
aI16899
aI19576
aI16143
aI18994
aI7472
aI6021
aI1712
aI9792
aI6998
aI6437
aI12245
aI5747
aI3367
aI14107
aI4519
aI10330
aI3969
aI11461
aI16659
aI7562
aI8844
aI19669
aI19178
aI13681
aI783
aI16496
aI10385
aI6677
aI5050
aI2075
aI5499
aI18627
aI8565
aI2748
aI3780
aI16381
aI6714
aI5254
aI11681
aI13000
aI15741
aI9240
aI4535
aI11307
aI12278
aI4020
aI17206
aI14657
aI19839
aI15241
aI13921
aI18492
aI15779
aI7826
aI10322
aI19930
aI15032
aI6418
aI11450
aI5789
aI6802
aI18182
aI7656
aI2754
aI19178
aI18171
aI9939
aI12353
aI13201
aI5338
aI1989
aI3114
aI19817
aI13893
aI8972
aI12447
aI19844
aI282
aI7942
aI18326
aI18064
aI9988
aI9220
aI14433
aI6219
aI3573
aI1728
aI6922
aI911
aI13065
aI11274
aI107
aI13259
aI3041
aI7871
aI18806
aI13193
aI12748
aI15010
aI19829
aI18011
aI4759
aI18522
aI13939
aI2791
aI5595
aI10711
aI3733
aI7116
aI18528
aI17241
aI9851
aI7415
aI5298
aI14013
aI5082
aI14569
aI11635
aI8667
aI6663
aI3295
aI3599
aI10698
aI13566
aI17544
aI16139
aI13888
aI8560
aI13712
aI12024
aI2043
aI2997
aI1021
aI1922
aI8609
aI18264
aI834
aI11869
aI4459
aI11251
aI4353
aI4385
aI19411
aI12002
aI6379
aI15952
aI17322
aI1022
aI2252
aI12766
aI4657
aI17238
aI8913
aI753
aI14882
aI14133
aI1805
aI11932
aI18849
aI13207
aI3046
aI7435
aI7441
aI1492
aI5416
aI1161
aI6923
aI12044
aI16028
aI4886
aI9764
aI14347
aI2457
aI5189
aI42
aI16984
aI1777
aI11052
aI2097
aI1130
aI17222
aI18374
aI5194
aI10492
aI693
aI6553
aI6096
aI16972
aI19159
aI3092
aI7053
aI849
aI9957
aI18513
aI6390
aI16311
aI15008
aI16826
aI744
aI13349
aI10406
aI7352
aI99
aI18501
aI6487
aI2564
aI10237
aI14444
aI17366
aI3750
aI10223
aI9009
aI13153
aI15380
aI18550
aI7190
aI9143
aI8701
aI17375
aI1253
aI7996
aI3799
aI4075
aI11937
aI6687
aI18211
aI217
aI6575
aI2467
aI16061
aI1393
aI16492
aI19114
aI10085
aI19147
aI19539
aI16310
aI12718
aI8202
aI6147
aI13857
aI1531
aI3120
aI5456
aI4823
aI15301
aI9613
aI13760
aI10702
aI1527
aI3686
aI7222
aI6347
aI11668
aI7531
aI16874
aI160
aI170
aI8214
aI19258
aI14092
aI5641
aI11210
aI5021
aI4066
aI10926
aI10626
aI12500
aI11439
aI11414
aI12607
aI1903
aI5162
aI10664
aI17757
aI332
aI7579
aI12708
aI10819
aI2281
aI3158
aI8710
aI17488
aI7896
aI3752
aI3712
aI1578
aI10379
aI15416
aI7553
aI17600
aI10199
aI1627
aI19132
aI5726
aI16822
aI13491
aI19430
aI12318
aI11403
aI7350
aI14795
aI6547
aI857
a.